(lp0
S'/v/guide-route/107332141'
p1
aS'/v/the-dagger/106520721'
p2
aS'/v/standard-route/105941845'
p3
aS'/v/thing-in-between/105947741'
p4
aS'/v/generation-x/107636757'
p5
aS'/v/first-best/105941861'
p6
aS'/v/tigger/106870492'
p7
aS'/v/spare-tire/106963299'
p8
aS'/v/orange-crack/105947722'
p9
aS'/v/soft-in-the-middle/106433348'
p10
aS'/v/bowling-for-buicks/106963269'
p11
aS'/v/india-ink/107238940'
p12
aS'/v/sparerib/105961561'
p13
aS'/v/zig-zag/105961577'
p14
aS'/v/pineapple-thunderpussy/105961779'
p15
aS'/v/savor-the-flavor/106071543'
p16
aS'/v/the-waltz/107653331'
p17
aS'/v/too-hot-to-tango/109346860'
p18
aS'/v/paso-doble/106026087'
p19
aS'/v/watchtower-standard-route/108100067'
p20
aS'/v/mothers-day/106870419'
p21
aS'/v/diesel-driver/107165169'
p22
aS'/v/alto-ray/107569582'
p23
aS'/v/black-line/106002018'
p24
aS'/v/lacy-panties/107682359'
p25
aS'/v/kabooki-direct/108067391'
p26
aS'/v/the-fugitive/107179547'
p27
aS'/v/ashes-of-stone/107269714'
p28
aS'/v/bozeman-beautiful/106538034'
p29
aS'/v/dark-horse/107123084'
p30
aS'/v/tarantella/107208963'
p31
aS'/v/skyline-arete/106396564'
p32
aS'/v/the-hunter/106170545'
p33
aS'/v/the-hunted/106170551'
p34
aS'/v/campground-beatdown/106170615'
p35
aS'/v/fat-f-five/106170621'
p36
aS'/v/pocket-protector/106170571'
p37
aS'/v/jail-bait/106170579'
p38
aS'/v/pocket-pool/106170587'
p39
aS'/v/the-bad/107773544'
p40
aS'/v/dirty-harry/107773572'
p41
aS'/v/naked-butt-dancing/107082614'
p42
aS'/v/pretty-polly/107742569'
p43
aS'/v/the-ugly/107984030'
p44
aS'/v/fistful-of-steel/106835484'
p45
aS'/v/childs-play-or-senseless-bummer/108306831'
p46
aS'/v/king-of-the-forest/107179726'
p47
aS'/v/crystal-delight/108295353'
p48
aS'/v/fire-escape/108295386'
p49
aS'/v/uber-ass/107241861'
p50
aS'/v/geriatrix/108960969'
p51
aS'/v/its-it/108069896'
p52
aS'/v/weapons-of-mass-destruction/108287084'
p53
aS'/v/room-with-a-view/106079982'
p54
aS'/v/room-with-a-view-2/106079993'
p55
aS'/v/cripple-crack/106136209'
p56
aS'/v/the-ramp/106213727'
p57
aS'/v/56-crack/106370696'
p58
aS'/v/pinnacle-standard/106370723'
p59
aS'/v/strawberry-crack/106370711'
p60
aS'/v/wide-crack/106497970'
p61
aS'/v/jerrys-variation/107758206'
p62
aS'/v/the-fiver/106497956'
p63
aS'/v/jerrys-route/107758232'
p64
aS'/v/blind-black-babies/106255818'
p65
aS'/v/rosebush-crack/106288990'
p66
aS'/v/slanting-dihedral/106430666'
p67
aS'/v/wizards-well/106870487'
p68
aS'/v/silent-rock/107758255'
p69
aS'/v/cardiac-bypass/107758297'
p70
aS'/v/theoretically/106252233'
p71
aS'/v/last-of-the-wild-ones-variation/107238707'
p72
aS'/v/tough-trip-through-paradise/107238683'
p73
aS'/v/abes-a-bitch/106300671'
p74
aS'/v/smoosh/107550548'
p75
aS'/v/achmed-the-dead-terrorist/107552857'
p76
aS'/v/evolution-dance/107550564'
p77
aS'/v/greenos-oil-can/107550138'
p78
aS'/v/peopleburg/107549603'
p79
aS'/v/let-the-healing-begin/107549615'
p80
aS'/v/dikes-edge/106421769'
p81
aS'/v/the-corner/107110153'
p82
aS'/v/iron-monger/107110131'
p83
aS'/v/11th-commandment-/107110349'
p84
aS'/v/razorback/107110306'
p85
aS'/v/the-tempest/107110111'
p86
aS'/v/town-pump/107110573'
p87
aS'/v/botulism/107110318'
p88
aS'/v/fire-drill/107110357'
p89
aS'/v/pleasant-surprise/107110611'
p90
aS'/v/flying-time/107111230'
p91
aS'/v/venus-de-milo/106547464'
p92
aS'/v/classic-crack/106547437'
p93
aS'/v/arms-race/106547430'
p94
aS'/v/outermost-limits/107110067'
p95
aS'/v/sleeping-beauty-/106548683'
p96
aS'/v/elmo/107110074'
p97
aS'/v/lichen-to-fly/107110081'
p98
aS'/v/club-foot/107111115'
p99
aS'/v/standard-route/106554832'
p100
aS'/v/the-jack-attack/106597343'
p101
aS'/v/nagasaki/107666979'
p102
aS'/v/hiroshima/109040893'
p103
aS'/v/the-natural/107666989'
p104
aS'/v/fatman/107667002'
p105
aS'/v/duck-and-cover/107692898'
p106
aS'/v/when-the-time-comes-/107662079'
p107
aS'/v/fright-train/108131314'
p108
aS'/v/black-russian/108285033'
p109
aS'/v/china-crisis/107149472'
p110
aS'/v/train-wreck/107282684'
p111
aS'/v/the-little-drill-that-couldnt/107666939'
p112
aS'/v/unknown/107666971'
p113
aS'/v/public-enema/108892255'
p114
aS'/v/public-enemy/108892271'
p115
aS'/v/public-service/108236566'
p116
aS'/v/dodge-ball/107692883'
p117
aS'/v/peer-pressure/107692878'
p118
aS'/v/schools-out/107692888'
p119
aS'/v/physical-development/107692893'
p120
aS'/v/shoshone-south-face/106679643'
p121
aS'/v/timebinder/106954084'
p122
aS'/v/standard-route/108401251'
p123
aS'/v/skin-diver/107656940'
p124
aS'/v/south-sea/107656976'
p125
aS'/v/sea-bucket/107657049'
p126
aS'/v/under-the-sea/107657027'
p127
aS'/v/coral-crimper/108264814'
p128
aS'/v/batman/107643164'
p129
aS'/v/robin/107643205'
p130
aS'/v/left-prow/107756999'
p131
aS'/v/ignition/107077816'
p132
aS'/v/walkup/107540672'
p133
aS'/v/prime-rib/107483806'
p134
aS'/v/reuben/107540547'
p135
aS'/v/the-mutt-and-jeff/107321383'
p136
aS'/v/southwest-face/108184861'
p137
aS'/v/steppin-out/107111463'
p138
aS'/v/shredder/107111449'
p139
aS'/v/puppy-teeth/107111473'
p140
aS'/v/snake-eye/107111297'
p141
aS'/v/dont-put-your-hand-in-it/107111306'
p142
aS'/v/st-louis-direct/107111318'
p143
aS'/v/the-fellowship/107077795'
p144
aS'/v/cold-forged-steel/107078083'
p145
aS'/v/no-dick-tick-/107487718'
p146
aS'/v/no-sweat-arete/107213152'
p147
aS'/v/chocolate-muffin-warmup/108084715'
p148
aS'/v/skipping-stones-into-my-childhood/108072015'
p149
aS'/v/christianity-on-demand/108072027'
p150
aS'/v/snap-dragon/108117350'
p151
aS'/v/bird-of-paradise/108117365'
p152
aS'/v/labors-of-lust/108117401'
p153
aS'/v/black-parade/108072051'
p154
aS'/v/winds-of-deception/108117390'
p155
aS'/v/stranger-than-fiction/108117383'
p156
aS'/v/hillbilly-heaven/108117540'
p157
aS'/v/himalayas-calling/108117584'
p158
aS'/v/cat-nip/108117451'
p159
aS'/v/bioluminescence/108117741'
p160
aS'/v/quality-control/108117522'
p161
aS'/v/porcelain-wall/108117615'
p162
aS'/v/panthalassa/107631207'
p163
aS'/v/blood-and-bolts/106899362'
p164
aS'/v/sullys-route/106445447'
p165
aS'/v/dancing-bare-naked-ladies/108934313'
p166
aS'/v/josh-was-grounded/108934274'
p167
aS'/v/lead-between-the-lines/108934293'
p168
aS'/v/the-amazing-chuck-and-grace/109261687'
p169
aS'/v/blackorette/109074345'
p170
aS'/v/gobis-in-the-dark/108077172'
p171
aS'/v/jens/108077182'
p172
aS'/v/quick-tease/108078025'
p173
aS'/v/yellowstone-poseidon-adventures/108111074'
p174
aS'/v/dam-in-the-rain/109074357'
p175
aS'/v/french-connection/108077213'
p176
aS'/v/one-bullet-to-many/108077200'
p177
aS'/v/flake-fest/108077894'
p178
aS'/v/rancho-deluxe/107527732'
p179
aS'/v/montana-centennial-route/106881785'
p180
aS'/v/thunderbolt-and-lightfeet/107692743'
p181
aS'/v/righteous-are-the-brave/107758460'
p182
aS'/v/ladyfingers/107790537'
p183
aS'/v/cutthroats-dont-wear-plaid/108182312'
p184
aS'/v/manly-fingertips/108182263'
p185
aS'/v/pocket-hunter/108336648'
p186
aS'/v/dream-catcher/108336680'
p187
aS'/v/dirty-bird/108143488'
p188
aS'/v/takin-care-of-business/108143511'
p189
aS'/v/blue-collar/108143515'
p190
aS'/v/dream-weaver/108217267'
p191
aS'/v/beginners-lead/108397976'
p192
aS'/v/automatic-pilot-/108397987'
p193
aS'/v/cruise-control/108398015'
p194
aS'/v/white-line/109284796'
p195
a.