(lp0
S'/v/precipice-ledges/106869609'
p1
aS'/v/wafer-step/105975313'
p2
aS'/v/story-of-o/105975325'
p3
aS'/v/standard-route/106034782'
p4
aS'/v/mme-lebois-troubled-lunge/109440145'
p5
aS'/v/old-town/105998178'
p6
aS'/v/the-philidelphia-story/107217953'
p7
aS'/v/trotsky/106413531'
p8
aS'/v/gunklandia/106680176'
p9
aS'/v/crack-of-senility/107217490'
p10
aS'/v/retlaw/107217945'
p11
aS'/v/vacation-cracks/107324024'
p12
aS'/v/bartleby/106489240'
p13
aS'/v/london-bridges/106489245'
p14
aS'/v/birch-ade/107168843'
p15
aS'/v/recollections-of-pacifica/106035181'
p16
aS'/v/gunklandia-direct-variation/106680362'
p17
aS'/v/chicken-of-the-sea/106813156'
p18
aS'/v/return-to-forever/105998473'
p19
aS'/v/green-mt-breakdown/106616203'
p20
aS'/v/sea-gypsy/106813121'
p21
aS'/v/chitlins-corner/106034988'
p22
aS'/v/from-russia-with-love/106897861'
p23
aS'/v/michaels-pin/107186841'
p24
aS'/v/emigrant-crack/105998460'
p25
aS'/v/fear-of-flying/107247470'
p26
aS'/v/fingers-in-a-seascape/106813149'
p27
aS'/v/sweet-surrender/106869596'
p28
aS'/v/connecticut-crack/105998188'
p29
aS'/v/high-wire/107186835'
p30
aS'/v/juvenile/106829277'
p31
aS'/v/scaramouche-arete/107247421'
p32
aS'/v/pipe-dreams/106177664'
p33
aS'/v/in-the-groove/106034975'
p34
aS'/v/the-great-chimney/106781388'
p35
aS'/v/chockstone-chimney/106824345'
p36
aS'/v/overhanging-corner/106034964'
p37
aS'/v/easy-corner/106034970'
p38
aS'/v/guillemot-crack/106824361'
p39
aS'/v/the-flake/106489235'
p40
aS'/v/wounderwall---right/106843479'
p41
aS'/v/wonderwall---left/106843469'
p42
aS'/v/cakewalk/107248769'
p43
aS'/v/black-crack/106194294'
p44
aS'/v/yellow-wall/106824332'
p45
aS'/v/wonder-wall/106034980'
p46
aS'/v/rock-lobster/106112856'
p47
aS'/v/peak-performance/106112846'
p48
aS'/v/guillotine/106867373'
p49
aS'/v/inner-sanctum/107248682'
p50
aS'/v/outer-face/107248662'
p51
aS'/v/a-dare-by-the-sea/106112441'
p52
aS'/v/the-gallery/106112901'
p53
aS'/v/head-arete/106301266'
p54
aS'/v/morning-glory/106116481'
p55
aS'/v/black-watch/106116467'
p56
aS'/v/corsair/106116469'
p57
aS'/v/moraviana/106680124'
p58
aS'/v/the-armadillo/106020335'
p59
aS'/v/rough-rhino/107111843'
p60
aS'/v/late-for-dinner/107111875'
p61
aS'/v/short-shagg/106076046'
p62
aS'/v/summer-smoke/107111948'
p63
aS'/v/the-great-escape/106076035'
p64
aS'/v/patches-the-clown/107112095'
p65
aS'/v/fuzzy-rhino-slippers-/106596840'
p66
aS'/v/zagg-shagg/106408202'
p67
aS'/v/shaggin-wagon/106075929'
p68
aS'/v/it-aint-pretty-being-easy/106075972'
p69
aS'/v/cell-block-d/106150490'
p70
aS'/v/short-bob/107111907'
p71
aS'/v/the-long-and-short-of-it/106076132'
p72
aS'/v/two-shaved-heads/106076029'
p73
aS'/v/screw-it/106390917'
p74
aS'/v/looney-tunes/106193544'
p75
aS'/v/ginseng-route/106075920'
p76
aS'/v/meltdown/106075960'
p77
aS'/v/tightrope/106075941'
p78
aS'/v/shagg-it-/106301998'
p79
aS'/v/unitard/107111883'
p80
aS'/v/fat-pig/106302006'
p81
aS'/v/equinox/106194435'
p82
aS'/v/old-spice/106175677'
p83
aS'/v/charlottes-crack/106200046'
p84
aS'/v/old-stud/106175682'
p85
aS'/v/the-bolt-ladder/106217389'
p86
aS'/v/dream-weaver/106245465'
p87
aS'/v/easy-stuff/106758006'
p88
aS'/v/pried-and-joy/106411341'
p89
aS'/v/upside-down-staircase/107084039'
p90
aS'/v/slice-of-the-gunks/106869006'
p91
aS'/v/walk-on-the-mild-side/106277173'
p92
aS'/v/happy-face/106411330'
p93
aS'/v/the-tax-is-too-steep/106278881'
p94
aS'/v/wheaties/106411368'
p95
aS'/v/bivy-route/106417273'
p96
aS'/v/crankcase/106896030'
p97
aS'/v/the-eagles-gift/106417285'
p98
aS'/v/highlander/106272030'
p99
aS'/v/texas-two-step/106411334'
p100
aS'/v/chinese-water-torture-direct/106411321'
p101
aS'/v/entrance-exam/106757989'
p102
aS'/v/eagle-direct/106269562'
p103
aS'/v/riders-of-the-storm/106779293'
p104
aS'/v/easter-island/106821067'
p105
aS'/v/craigs-crack/106831151'
p106
aS'/v/buteo-and-the-beast/106411480'
p107
aS'/v/natural-mystic/106411525'
p108
aS'/v/my-time/106411946'
p109
aS'/v/amc-route/106505313'
p110
aS'/v/bubblecuffer/107298937'
p111
aS'/v/captain-dinghy/109232008'
p112
a.