(lp0
S'/v/el-cachorro-the-cub/108010466'
p1
aS'/v/zombie-wolf/105920056'
p2
aS'/v/the-anvil/108564722'
p3
aS'/v/howlin-wolf/105920044'
p4
aS'/v/the-blacksmith/108564748'
p5
aS'/v/will-the-wolf-survive/105906014'
p6
aS'/v/palm-snake/106373354'
p7
aS'/v/never-cry-wolf/106604424'
p8
aS'/v/honor-among-thieves/105920094'
p9
aS'/v/exsqueeze-me/105920122'
p10
aS'/v/seisseisocho/106079600'
p11
aS'/v/run-for-the-border/106079606'
p12
aS'/v/hey-buddy-you-gonna-eat-that/106079612'
p13
aS'/v/left-over-man/105920111'
p14
aS'/v/el-volvo-scorcho/106177374'
p15
aS'/v/pimpanada/106317006'
p16
aS'/v/super-maxi-express-guey/106359215'
p17
aS'/v/ms-panza-que-pelo-more-belly-than-hair/106177423'
p18
aS'/v/coca-cola/105920128'
p19
aS'/v/cerveza/105920133'
p20
aS'/v/matacumba/106177392'
p21
aS'/v/chili-dog/106648423'
p22
aS'/v/empanada/106177414'
p23
aS'/v/la-presa/106265765'
p24
aS'/v/el-curandero/106265743'
p25
aS'/v/bone-factory/105906022'
p26
aS'/v/crack-test-dummies/106081011'
p27
aS'/v/aguja-celo-rey/105914177'
p28
aS'/v/sunnyside-up/106641313'
p29
aS'/v/gettin-wood/105914186'
p30
aS'/v/through-the-looking-glass/106080993'
p31
aS'/v/jungle-honey/106355526'
p32
aS'/v/uber-machismo/106071021'
p33
aS'/v/dirty-dreams/105938017'
p34
aS'/v/pangea/106070371'
p35
aS'/v/peek-a-boo-jesus/106071016'
p36
aS'/v/satori/106198915'
p37
aS'/v/off-the-couch/106729852'
p38
aS'/v/zapatista/106198966'
p39
aS'/v/sesame-street-tufa/106358811'
p40
aS'/v/espantasuegra/105920151'
p41
aS'/v/la-ola/105920155'
p42
aS'/v/la-baca-chenta/106180680'
p43
aS'/v/surfin-the-wave/106180686'
p44
aS'/v/tufa-the-price-of-one/106157497'
p45
aS'/v/la-pasada/106180675'
p46
aS'/v/chutes-and-ladders/106176014'
p47
aS'/v/permanent-vacation/106175948'
p48
aS'/v/twist-of-fate/106175968'
p49
aS'/v/pope-on-a-rope/106340063'
p50
aS'/v/shakti/106340067'
p51
aS'/v/mother-superior/106340059'
p52
aS'/v/mr-big/106175960'
p53
aS'/v/la-mono-de-dios/106685578'
p54
aS'/v/abuelito-dime-tu/106178043'
p55
aS'/v/i-believe-i-can-fly/106317011'
p56
aS'/v/emilios-posse/105920183'
p57
aS'/v/caguama-queen/105920195'
p58
aS'/v/sleepwalkin/106178003'
p59
aS'/v/this-dogs-life/105920189'
p60
aS'/v/crescent-moon-aka-death-of-a-tradman/106640630'
p61
aS'/v/cactus-pile/105920175'
p62
aS'/v/dope-ninja/106079936'
p63
aS'/v/tlaloc/106178010'
p64
aS'/v/cactus-dancing/106178023'
p65
aS'/v/all-fun-and-games/106181785'
p66
aS'/v/kelsos-way/106179834'
p67
aS'/v/pancho-villa-rides-again/105939475'
p68
aS'/v/treasure-of-the-sierra-madre/105949507'
p69
aS'/v/paz-para-viequez/106181790'
p70
aS'/v/snott-girlz/106115483'
p71
aS'/v/double-cherry-pie/106183083'
p72
aS'/v/motarola/106177948'
p73
aS'/v/team-hilti/106177953'
p74
aS'/v/motavision/106177981'
p75
aS'/v/pins-and-needles/106178016'
p76
aS'/v/frenesi/106181811'
p77
aS'/v/monkey-boy/106177957'
p78
aS'/v/motavation/106177974'
p79
aS'/v/el-grifo-the-stoner/106177987'
p80
aS'/v/two-pump-chump/106178074'
p81
aS'/v/juggalo/106181771'
p82
aS'/v/fat-boy-slim/106177967'
p83
aS'/v/drillin-and-swillin/106180711'
p84
aS'/v/onward-through-the-fog/106178065'
p85
aS'/v/red-helmet/106178089'
p86
aS'/v/la-vaca-the-cow/106178031'
p87
aS'/v/hey-buddy-nice-cock/106178054'
p88
aS'/v/petting-zoo/106178084'
p89
aS'/v/eldorado-chuy/106178095'
p90
aS'/v/bubble-boyz/106649908'
p91
aS'/v/las-chimuelas/106079593'
p92
aS'/v/jungle-boy/105920222'
p93
aS'/v/jungle-mountaineering/105949475'
p94
aS'/v/black-cat-bone/106072905'
p95
aS'/v/space-boyz/106183204'
p96
aS'/v/yankee-clipper/106081566'
p97
aS'/v/foopa/105920239'
p98
aS'/v/mr-pmosh/106402558'
p99
aS'/v/quick-draw-mcgraw/106183827'
p100
aS'/v/golden-puff/106183270'
p101
aS'/v/joes-garage/106183712'
p102
aS'/v/mecasuit/106743176'
p103
aS'/v/gringo-disco/106183786'
p104
aS'/v/pepe-y-lupe-craig-luebben-route/105939427'
p105
aS'/v/same-same-but-different/105939437'
p106
aS'/v/hombre-de-rifle/106358104'
p107
aS'/v/mr-fluffers-wild-ride/106177294'
p108
aS'/v/jesus-amarillo/106176142'
p109
aS'/v/la-pantera-rosa/106176130'
p110
aS'/v/take-me-to-your-marklar/106177319'
p111
aS'/v/marklar/106177301'
p112
aS'/v/estrellita/105961980'
p113
aS'/v/planet-marklar/106177308'
p114
aS'/v/marklar-man/106177314'
p115
aS'/v/landscaping/106177323'
p116
aS'/v/send-it-pink-pocket-express-/106651075'
p117
aS'/v/thunderkiss/106098897'
p118
aS'/v/the-curse-of-the-furry-beast/106373476'
p119
aS'/v/the-devils-tongue/106265810'
p120
aS'/v/pitch-black/108556929'
p121
aS'/v/cyclops/106175828'
p122
aS'/v/dead-man-walking/106085470'
p123
aS'/v/osito/107008102'
p124
aS'/v/the-texas-tumble/106085515'
p125
aS'/v/all-cracked-up-and-no-place-to-go/106085523'
p126
aS'/v/monica-lewinskys-crack/106183105'
p127
aS'/v/crack-a-mole/106683755'
p128
aS'/v/time-wave-zero/106087605'
p129
aS'/v/no-excuses/106183150'
p130
aS'/v/despachadora-de-gomitas/106651135'
p131
aS'/v/el-sendero-diablo-the-devils-path/106175808'
p132
aS'/v/celestial-omnibus/106099461'
p133
aS'/v/fit-for-life/107413540'
p134
aS'/v/steel-pulse/107449255'
p135
aS'/v/slippery-down-under-1st-pitch/106651041'
p136
aS'/v/british-invasion/106359376'
p137
aS'/v/hurdy-gurdy-man/106364153'
p138
aS'/v/mothership-connection/106340352'
p139
aS'/v/devils-cabana-boy/106099467'
p140
aS'/v/habanerotime-for-livin/107395879'
p141
aS'/v/baked-fresh-daily/106177922'
p142
aS'/v/band-of-brothers/107110640'
p143
aS'/v/agua-de-coco/106177930'
p144
aS'/v/no-habla-espanol/107456076'
p145
aS'/v/inglorious-bastards/107110717'
p146
aS'/v/blue-fin/106335063'
p147
aS'/v/guppie/106183120'
p148
aS'/v/bottom-feeder/106611654'
p149
aS'/v/surfer-rosa/106386750'
p150
aS'/v/doof-crack/106185035'
p151
aS'/v/the-popsicle-kings/106185029'
p152
aS'/v/xl-puff-sneaker/106185023'
p153
aS'/v/the-cats-meow/106185056'
p154
aS'/v/scaredy-cat/106389631'
p155
aS'/v/cat-daddy/106185054'
p156
aS'/v/the-gringo-ate-my-baby/106389639'
p157
aS'/v/31-foot-smurf/106389654'
p158
aS'/v/dna/106389644'
p159
aS'/v/penitente/106185057'
p160
aS'/v/catwalk/106185090'
p161
aS'/v/blind-faith/106185052'
p162
aS'/v/selam/106333385'
p163
aS'/v/flying-scorpion/106333393'
p164
aS'/v/mugre/109856597'
p165
aS'/v/bad-cop-no-donut/106333406'
p166
aS'/v/resurrection/106186183'
p167
aS'/v/trouble-at-the-border/106702450'
p168
aS'/v/mugre-mugre/107050535'
p169
aS'/v/sancho-panza/106186149'
p170
aS'/v/don-quixote/106186161'
p171
aS'/v/el-balota/106265842'
p172
aS'/v/mexico-in-flames/106702431'
p173
aS'/v/gracias-mi-amor/108714782'
p174
aS'/v/milk-cow-blues/106197646'
p175
aS'/v/super-nova/105939456'
p176
aS'/v/fear-of-flying/106334831'
p177
aS'/v/salty-dog/106340055'
p178
aS'/v/conflict/106334840'
p179
aS'/v/the-worm/106344980'
p180
aS'/v/club-mex/106365766'
p181
aS'/v/mr-hanky/106309607'
p182
aS'/v/one-dead-teardrop/106649898'
p183
aS'/v/ramseys-shenanigans/107377663'
p184
aS'/v/asombrame/106309625'
p185
aS'/v/halfway-to-booty/109801365'
p186
aS'/v/evil-shenanigans/106336964'
p187
aS'/v/cold-woman-warm-tufa/106400374'
p188
aS'/v/brotherhood/106358132'
p189
aS'/v/culo-de-negra/106345228'
p190
aS'/v/muchos-conjuros/106345231'
p191
aS'/v/cara-cortada/106339178'
p192
aS'/v/ramones-mushroom/108679633'
p193
aS'/v/body-groovin/106345235'
p194
aS'/v/alien-tufa/106345241'
p195
aS'/v/culo-de-merlin/106345224'
p196
aS'/v/la-felicidad/106361829'
p197
aS'/v/nosferatus/106361834'
p198
aS'/v/bernalina/106121304'
p199
aS'/v/-el-lado-oscuro-de-la-luna/106326806'
p200
a.