(lp0
S'/v/theater-of-shadows/105741557'
p1
aS'/v/sinocranium/105740942'
p2
aS'/v/southern-arches/107170217'
p3
aS'/v/normas-book/105740948'
p4
aS'/v/solo-mission/105741662'
p5
aS'/v/delay-of-game/105740945'
p6
aS'/v/road-rage/105957883'
p7
aS'/v/batwings/105740951'
p8
aS'/v/suburban-sprawl/105956721'
p9
aS'/v/pave-paradise/105957870'
p10
aS'/v/batwings-direct/105741089'
p11
aS'/v/no-parking/105980265'
p12
aS'/v/funky-bolt/105740957'
p13
aS'/v/tow-away-zone/105741062'
p14
aS'/v/beauty-and-the-beast/105741578'
p15
aS'/v/stress-fracture/106254635'
p16
aS'/v/just-another-pretty-face/105740954'
p17
aS'/v/spud-meets-hammerhead/105741863'
p18
aS'/v/thin-slice/105741581'
p19
aS'/v/cairo/105740960'
p20
aS'/v/bombs-over-tripoli/106088728'
p21
aS'/v/skyline/105740963'
p22
aS'/v/incisor/105845886'
p23
aS'/v/book-of-dissent/105853850'
p24
aS'/v/fall-line/105741035'
p25
aS'/v/reach-for-the-sky/105741851'
p26
aS'/v/morning-glory/105982849'
p27
aS'/v/brown-flake/105741587'
p28
aS'/v/siesta/105741590'
p29
aS'/v/crack-of-doom/105741584'
p30
aS'/v/strategic-defense/105845604'
p31
aS'/v/power-tools/106469408'
p32
aS'/v/lady-j/108935030'
p33
aS'/v/tommy-knocker/105740966'
p34
aS'/v/lost-arrow/105740972'
p35
aS'/v/ischemic-pain--body-buster/105970015'
p36
aS'/v/easy-way-up/105740975'
p37
aS'/v/cowboy/105788842'
p38
aS'/v/tree-start/106920506'
p39
aS'/v/cowgirl/108207784'
p40
aS'/v/epic/105741941'
p41
aS'/v/eastside-groove/108195409'
p42
aS'/v/soap-on-a-rope/105980608'
p43
aS'/v/private-idaho/105740984'
p44
aS'/v/rollercoaster/105741848'
p45
aS'/v/scream-machine/105741869'
p46
aS'/v/doninis-crack/105741041'
p47
aS'/v/colossus/105741866'
p48
aS'/v/loch-ness-monster/105741044'
p49
aS'/v/gemini/105845597'
p50
aS'/v/popes-on-a-date/105980583'
p51
aS'/v/euro-beast/107224787'
p52
aS'/v/immortal-porpoises/107591593'
p53
aS'/v/prey-for-me/106566795'
p54
aS'/v/white-huecos/106804235'
p55
aS'/v/calamari/107682522'
p56
aS'/v/wheat-thin/105740996'
p57
aS'/v/columbian-crack/105741563'
p58
aS'/v/rye-crisp/105740981'
p59
aS'/v/sinsemilla/105741857'
p60
aS'/v/just-say-no/105740978'
p61
aS'/v/the-pygmies-got-stoned/105741854'
p62
aS'/v/pretzel-logic/105741860'
p63
aS'/v/tres-amigos/107310399'
p64
aS'/v/heironimous-bosch/107310412'
p65
aS'/v/just-say-go/105918420'
p66
aS'/v/strawberry-jam/106015735'
p67
aS'/v/prepare-for-soaring-seagulls/105741056'
p68
aS'/v/beware-of-nesting-egos/105835842'
p69
aS'/v/snakes-and-ladders/105828990'
p70
aS'/v/jug-world/105741515'
p71
aS'/v/z-crack/105741518'
p72
aS'/v/stans-roof/105845642'
p73
aS'/v/double-cracks/105838058'
p74
aS'/v/groovy-crack/105955616'
p75
aS'/v/the-awakening/105845616'
p76
aS'/v/bikini-candy/105741008'
p77
aS'/v/bora-bora/105741005'
p78
aS'/v/the-good-stuff/106250864'
p79
aS'/v/roratonga/106804275'
p80
aS'/v/terror-of-tiny-town/105741038'
p81
aS'/v/fat-lip/105742082'
p82
aS'/v/no-net/106183610'
p83
aS'/v/circus-roof/106183606'
p84
aS'/v/swiss-cheese/105741047'
p85
aS'/v/velveeta/105918435'
p86
aS'/v/scream-cheese/105741593'
p87
aS'/v/animal-cracker/105741521'
p88
aS'/v/harvest/106216192'
p89
aS'/v/singapore/105945642'
p90
aS'/v/shes-the-bosch/105799303'
p91
aS'/v/jet-lag/105893568'
p92
aS'/v/good-times/105741596'
p93
aS'/v/pure-pleasure/105741599'
p94
aS'/v/juniper-jam/105741608'
p95
aS'/v/drunken-cowboy/105741560'
p96
aS'/v/masochist-crack/105795478'
p97
aS'/v/failure-to-launch/106191339'
p98
aS'/v/destroy-all-planets/105807060'
p99
aS'/v/expect-no-mercy/105741605'
p100
aS'/v/fledgling/106190598'
p101
aS'/v/snack-break-direct/105795507'
p102
aS'/v/snack-break/106183790'
p103
aS'/v/owl-roof/105955441'
p104
aS'/v/raindance/105741569'
p105
aS'/v/tribal-boundaries/105741602'
p106
aS'/v/reservations/105799344'
p107
aS'/v/quest-for-fire/105799356'
p108
aS'/v/city-girls/105799291'
p109
aS'/v/firewater/105799349'
p110
aS'/v/smoke-signal/106088741'
p111
aS'/v/beginner-slab/107272232'
p112
aS'/v/first-lead/105741572'
p113
aS'/v/topropes/105741575'
p114
aS'/v/groove/105741650'
p115
aS'/v/step-left/105741656'
p116
aS'/v/far-left/108194885'
p117
aS'/v/little-problem/105741659'
p118
aS'/v/touchy-feely/105741653'
p119
aS'/v/hesitation-blues/105968954'
p120
aS'/v/duprees-diamond-blues/106791296'
p121
aS'/v/roadkill/106791268'
p122
aS'/v/coyote-corner/105795525'
p123
aS'/v/dance-to-the-music/107164382'
p124
aS'/v/redtail/105742076'
p125
aS'/v/sudden-pleasure/105742085'
p126
aS'/v/hyperspuds/106804258'
p127
aS'/v/spuds-in-the-gym/106436283'
p128
aS'/v/mikis-six/106601268'
p129
aS'/v/too-much-fun/105742073'
p130
aS'/v/new-york-is-not-the-city/105742067'
p131
aS'/v/flight-of-the-bumblie/106548467'
p132
aS'/v/bumblie-takes-a-tumblie/105742070'
p133
aS'/v/unknown-bumblie/106303231'
p134
aS'/v/cruel-shoes/105742130'
p135
aS'/v/dykes-of-gastonia/105839382'
p136
aS'/v/mystery-bolter/105742115'
p137
aS'/v/short-circuit/105862525'
p138
aS'/v/dynamo-hum/105816757'
p139
aS'/v/live-wire/105862530'
p140
aS'/v/heat-wave/105862550'
p141
aS'/v/vibrator/105862540'
p142
aS'/v/chomping-at-the-bit/105866159'
p143
aS'/v/corridor-crack/106482744'
p144
aS'/v/land-of-the-lost/105816764'
p145
aS'/v/routine-expedition/105816768'
p146
aS'/v/master-mechanic/105983525'
p147
aS'/v/chimney/105967535'
p148
aS'/v/mystery-achievement/107682572'
p149
aS'/v/twist-and-crawl/105741101'
p150
aS'/v/bloody-fingers/105741026'
p151
aS'/v/double-vision/105741095'
p152
aS'/v/new-toy/105741098'
p153
aS'/v/dykes-on-harleys/107536885'
p154
aS'/v/twilight/105854664'
p155
aS'/v/adolescent-homo/105741617'
p156
aS'/v/preteen-sex/105740999'
p157
aS'/v/carols-crack/105741512'
p158
aS'/v/bestiality/107274087'
p159
aS'/v/divine-decadence/108139139'
p160
aS'/v/nipples-and-clits/105847449'
p161
aS'/v/fdc/106015652'
p162
aS'/v/abortions-on-parade/105847459'
p163
aS'/v/dimples-and-tits/105847453'
p164
aS'/v/life-without-sex/105854215'
p165
aS'/v/flesh-for-fantasy/105983540'
p166
aS'/v/testosterone-test/106015666'
p167
aS'/v/easy-corner/105741530'
p168
aS'/v/triple-roofs/106088797'
p169
aS'/v/white-flake/106551027'
p170
aS'/v/humbles-tumble/105967547'
p171
aS'/v/finer-niner/106254301'
p172
aS'/v/tennish-anyone/105849995'
p173
aS'/v/sabbatical/105955459'
p174
aS'/v/provo/106088787'
p175
aS'/v/self-abuse/106041075'
p176
aS'/v/no-cash-refunds/106916441'
p177
aS'/v/fred-rassmussen/105820338'
p178
aS'/v/catwalk/105795544'
p179
aS'/v/lost-pioneers/105962059'
p180
aS'/v/two-bits/105955452'
p181
aS'/v/route-66/106494034'
p182
aS'/v/tide-country/105956715'
p183
aS'/v/interceptor/106002801'
p184
aS'/v/stolen-thunder/106469474'
p185
aS'/v/muffin-top/107179863'
p186
aS'/v/love-handles/107179875'
p187
aS'/v/stretch-marks/106183768'
p188
aS'/v/built-for-comfort/107179849'
p189
aS'/v/aspen-leaf/106183772'
p190
aS'/v/breezeway/105962097'
p191
aS'/v/houghs-crack/105741002'
p192
aS'/v/intruding-dike/105741011'
p193
aS'/v/featured-face/105962104'
p194
aS'/v/cholelithiasis-/107164872'
p195
aS'/v/cholecystectomy/107164879'
p196
aS'/v/conceptual-reality/105847435'
p197
aS'/v/meningitis/107609574'
p198
aS'/v/silent-partner/105853642'
p199
aS'/v/terrebonne-jacks/105853808'
p200
aS'/v/scar-tissue/105853841'
p201
aS'/v/deez-guys/105864025'
p202
aS'/v/i-cant-believe-it/105864016'
p203
aS'/v/how-i-spent-my-summer-vacation/106428154'
p204
aS'/v/driving-at-night/105886965'
p205
aS'/v/hang-ten/105886978'
p206
aS'/v/skin-the-cat/105867039'
p207
aS'/v/looker/105867036'
p208
aS'/v/bomber/105867043'
p209
aS'/v/indiscretion/105981055'
p210
aS'/v/wonderbread/105981084'
p211
aS'/v/renegade/105949574'
p212
aS'/v/pale-face/105949567'
p213
aS'/v/white-line-fever/105970002'
p214
aS'/v/crotchbound/105970006'
p215
aS'/v/bovine-guidance/105970009'
p216
aS'/v/pinner-face/106902410'
p217
aS'/v/latter-day-saints/106902377'
p218
aS'/v/techno-weenie/106804297'
p219
aS'/v/the-mechanic/106469455'
p220
aS'/v/technicolor-arete/106469435'
p221
aS'/v/lego/105980641'
p222
aS'/v/acid-rain/105980650'
p223
aS'/v/scraps/106183644'
p224
aS'/v/heartbreaker/105983104'
p225
aS'/v/surfing-the-orgasmic-wave/106548488'
p226
aS'/v/double-trouble/107300517'
p227
aS'/v/the-ramp/106242815'
p228
aS'/v/pogemahone/106183822'
p229
aS'/v/get-over-it/106000083'
p230
aS'/v/face-shot/106015700'
p231
aS'/v/houser-arete/106015716'
p232
aS'/v/checkered-demon/106015721'
p233
aS'/v/spot/107307170'
p234
aS'/v/electric-avenue/106163476'
p235
aS'/v/three-star-corner/106183629'
p236
aS'/v/eagle-crack/106548476'
p237
aS'/v/fly-like-an-eagle/106260788'
p238
aS'/v/beef-jello/106436162'
p239
aS'/v/north-face-left/106754162'
p240
aS'/v/north-face-right/106754166'
p241
aS'/v/margin-walker/106754141'
p242
aS'/v/sea-biscuit/106754154'
p243
aS'/v/white-lightning/106782976'
p244
aS'/v/flake-route/106856481'
p245
aS'/v/moderate-route/107260996'
p246
aS'/v/hired-gun/107183590'
p247
aS'/v/the-drilling-fields/105846013'
p248
aS'/v/pigs-on-a-wing/106161440'
p249
aS'/v/truth-is-stranger-than-friction/106187885'
p250
aS'/v/theres-friction-afoot/106439270'
p251
aS'/v/naked-ape/108227799'
p252
aS'/v/yellow-wall/108269212'
p253
aS'/v/to-have-and-to-hold/105812213'
p254
aS'/v/opuntia/105812207'
p255
aS'/v/groom-with-a-view/105812221'
p256
aS'/v/poking-holes-in-the-firmament/105841756'
p257
aS'/v/scorpio-rising/107182911'
p258
aS'/v/shock-and-awe/105811909'
p259
aS'/v/claim-jumper/107164703'
p260
aS'/v/its-hard-to-say-no/105811923'
p261
aS'/v/mountain-mahogany/108206018'
p262
aS'/v/jug-a-lug/105811915'
p263
aS'/v/jesus-and-einstein/105811934'
p264
aS'/v/milk-toast/106811945'
p265
aS'/v/hairstyles-and-attitudes/105812232'
p266
aS'/v/crimson-arete/105811929'
p267
aS'/v/smiley-face/107142616'
p268
aS'/v/castles-made-of-sand/105811938'
p269
aS'/v/its-hard-to-be-a-saint-in-the-city/105846782'
p270
aS'/v/little-time/105841773'
p271
aS'/v/big-time/105742169'
p272
aS'/v/high-times/108850499'
p273
aS'/v/castle-keep/105846776'
p274
aS'/v/diamonds-in-the-rough/106312487'
p275
aS'/v/pollo-negro/106804227'
p276
aS'/v/high-road/105742166'
p277
aS'/v/fruit-pie/105742175'
p278
aS'/v/zinger/105742181'
p279
aS'/v/it-takes-two/105841766'
p280
aS'/v/between-heaven-and-earth/105842582'
p281
aS'/v/red-rib/105811870'
p282
aS'/v/numbshull/105839336'
p283
aS'/v/blind-pig/106829965'
p284
aS'/v/twinkie/105742184'
p285
aS'/v/honeymoon-in-almo/105742172'
p286
aS'/v/ho-ho/105742187'
p287
aS'/v/patina-atoll/105811886'
p288
aS'/v/ray-of-heaven/106000143'
p289
aS'/v/five-feet-high-and-rising/106000171'
p290
aS'/v/small-fry/107183276'
p291
aS'/v/high-center/106210385'
p292
aS'/v/lil-buckeroo/106718240'
p293
aS'/v/coo-coo-cachoo/106718260'
p294
aS'/v/eye-full-tower/106210372'
p295
aS'/v/alpinista-sista/106718247'
p296
aS'/v/pre-emptive-strike/106200378'
p297
aS'/v/crack-class-/106718229'
p298
aS'/v/jug-massacre/107292698'
p299
aS'/v/kp-109/106542788'
p300
aS'/v/big-kahuna/106210445'
p301
aS'/v/point-break/106542798'
p302
aS'/v/tidal-wave/106483991'
p303
aS'/v/sirens-of-almo/106718282'
p304
aS'/v/pork-chop/106459159'
p305
aS'/v/eeyores-smile/108045830'
p306
aS'/v/taco-time/106718777'
p307
aS'/v/vote-for-pedro/106718790'
p308
aS'/v/south-ridge/106719094'
p309
aS'/v/taco-chip/106719070'
p310
aS'/v/mole-problano/106719076'
p311
aS'/v/taco-supreme/107682671'
p312
aS'/v/handy/106718575'
p313
aS'/v/continental-crust/105838540'
p314
aS'/v/mantle-dynamics/105838569'
p315
aS'/v/shop-and-compare/106460891'
p316
aS'/v/splitter/106460901'
p317
aS'/v/-dolly-parton/105838025'
p318
aS'/v/jude-24/106399696'
p319
aS'/v/death-fall/105838031'
p320
aS'/v/tossed-salad/106279460'
p321
aS'/v/organic-1/108251672'
p322
aS'/v/organic-4/108251740'
p323
aS'/v/sherman/106383795'
p324
aS'/v/peabody/106383834'
p325
aS'/v/spinich-free-flinty/106383820'
p326
aS'/v/eat-your-roofage-aka-sandra-bullock/106439274'
p327
aS'/v/fearless-leader/106197734'
p328
aS'/v/billy-goat/106410317'
p329
aS'/v/rolling-thunder/106416128'
p330
aS'/v/3-mrs-butterworth/106924736'
p331
aS'/v/lion-of-the-north/106416135'
p332
aS'/v/whitewater/106416147'
p333
aS'/v/the-young-and-the-pampered/105847042'
p334
aS'/v/5-end-piece-goes-to-night-flight/106924745'
p335
aS'/v/janet-jackson/108130562'
p336
aS'/v/frostbite/106487115'
p337
aS'/v/caveman/106279475'
p338
aS'/v/open-book-direct/107193997'
p339
aS'/v/freely-given/106280011'
p340
aS'/v/the-great-controversy/105847156'
p341
aS'/v/lsh/106397371'
p342
aS'/v/lost-arrow-spur/106397338'
p343
aS'/v/peter-beater/106383782'
p344
aS'/v/the-mangler/106489859'
p345
aS'/v/northwest-passage/106569498'
p346
aS'/v/paleface/106389976'
p347
aS'/v/duddly-do-right/106390004'
p348
aS'/v/bullwinkle/106427153'
p349
aS'/v/rocky/106427163'
p350
aS'/v/blow-job/106399684'
p351
aS'/v/a-climb-named-sue/106399673'
p352
aS'/v/courtly-love/107171970'
p353
aS'/v/crocodile-dundee/106414588'
p354
aS'/v/barrier-reef/106414581'
p355
aS'/v/white-whale/106414575'
p356
aS'/v/the-nephite/105848844'
p357
aS'/v/the-greenhorn/105848825'
p358
aS'/v/bert/105850311'
p359
aS'/v/dude/105850200'
p360
aS'/v/styling/105850206'
p361
aS'/v/hexology/105850348'
p362
aS'/v/butthead/105848862'
p363
aS'/v/ernie/105850314'
p364
aS'/v/air-rete/105850325'
p365
aS'/v/casual-cruise/105850332'
p366
aS'/v/whipper/105850197'
p367
aS'/v/sanitary-landfill/105850082'
p368
aS'/v/primitive-man/105850209'
p369
aS'/v/warm-n-fuzzy/107762784'
p370
aS'/v/bevis/105848859'
p371
aS'/v/body-by-jake/105850220'
p372
aS'/v/fire-in-the-belly/105850229'
p373
aS'/v/loser/105848865'
p374
aS'/v/get-a-life/105850085'
p375
aS'/v/ziplock/105848942'
p376
aS'/v/black-thing/105848947'
p377
aS'/v/citation/105848972'
p378
aS'/v/mac-daddy/105850226'
p379
aS'/v/burleymon/105848984'
p380
aS'/v/pink-slip/105848958'
p381
aS'/v/main-street/106419684'
p382
aS'/v/pretty-woman/107745089'
p383
aS'/v/mountaineers-route/105996469'
p384
aS'/v/sideline/105996576'
p385
aS'/v/astro-elephant/105996567'
p386
aS'/v/splittgerber-march-direct/105996464'
p387
aS'/v/direct-beckey/105996498'
p388
aS'/v/myopia/105996539'
p389
aS'/v/the-fine-line/105996519'
p390
aS'/v/original-beckey/105996507'
p391
aS'/v/sunrise-book/105996582'
p392
aS'/v/open-book/106531483'
p393
aS'/v/se-face/110776977'
p394
aS'/v/powder-finger/105986053'
p395
aS'/v/supernaut/105989193'
p396
aS'/v/free-fallin/107710783'
p397
aS'/v/the-hive/105986047'
p398
aS'/v/el-jefe/105989185'
p399
aS'/v/bride-of-crankenstein/106992175'
p400
aS'/v/soul-power/107710738'
p401
aS'/v/regular-route/106012865'
p402
aS'/v/memorial-route/106018806'
p403
aS'/v/slippery-slope/106107193'
p404
aS'/v/toddler/106062289'
p405
aS'/v/buster-bronco/108045111'
p406
aS'/v/aunt-fannie/108045117'
p407
aS'/v/neophyte-flight/107566528'
p408
aS'/v/jump-chump/108670882'
p409
aS'/v/trimmed-bush/106060680'
p410
aS'/v/copperhead/108328721'
p411
aS'/v/mystery-route/106185961'
p412
aS'/v/unknown-leon/107381697'
p413
aS'/v/bologna-pony/106060673'
p414
aS'/v/number-eight/108033987'
p415
aS'/v/circumciser/106060694'
p416
aS'/v/raptor-arete/109445377'
p417
aS'/v/my-stinky-hole/108033931'
p418
aS'/v/beta-junkie/109598008'
p419
aS'/v/thanks-for-the-mammaries/107872377'
p420
aS'/v/jet-screamin-hooter-queens/107830804'
p421
aS'/v/little-nest/106068998'
p422
aS'/v/stems-and-jammies/106069021'
p423
aS'/v/sweet-adene/107641513'
p424
aS'/v/mood-swing/108373680'
p425
aS'/v/white-wash/107641505'
p426
aS'/v/bsu-fantasy/108177975'
p427
aS'/v/perception-vs-reality/107641519'
p428
aS'/v/mean-adene/108041838'
p429
aS'/v/fat-ankles/106577043'
p430
aS'/v/nash-e-mun/108172616'
p431
aS'/v/heat-miser/108172666'
p432
aS'/v/loaded-gun/109305187'
p433
aS'/v/snake-eyes/106753365'
p434
aS'/v/nut-n-a-sling/107183564'
p435
aS'/v/almer-casile-memorial-buttress/108172589'
p436
aS'/v/ajax/106290367'
p437
aS'/v/lucky-pierre/107183558'
p438
aS'/v/in-vivo/107183571'
p439
aS'/v/nikita/107183580'
p440
aS'/v/the-puffer/108049324'
p441
aS'/v/more-than-i-can-chew/108178019'
p442
aS'/v/wizards-sleeve/108433972'
p443
aS'/v/tidy-up/108049362'
p444
aS'/v/sweat-engine/107295924'
p445
aS'/v/epic-for-the-masses/106758983'
p446
aS'/v/bushwhacker/106759008'
p447
aS'/v/bryans-route/108174120'
p448
aS'/v/sweet-thing/106759024'
p449
aS'/v/stone-tools/107607130'
p450
aS'/v/gargling-vinegar/107251252'
p451
aS'/v/eyeless-in-gaza/106887181'
p452
aS'/v/the-cleaning-lady/108217945'
p453
aS'/v/the-industrial-age/108742776'
p454
aS'/v/two-studs/107838924'
p455
aS'/v/whimper/108736526'
p456
aS'/v/the-pansy/107610770'
p457
aS'/v/neon-leprechaun/109019185'
p458
aS'/v/macabre-roof/107251239'
p459
aS'/v/holiday-in-cambodia/107610795'
p460
aS'/v/boys-r-blue/108393554'
p461
aS'/v/barry-barry/107116416'
p462
aS'/v/constant-current/107242318'
p463
aS'/v/dawn-patrol/107609134'
p464
aS'/v/bolts-n-burger/108177993'
p465
aS'/v/the-flying-circus/107227212'
p466
aS'/v/ohms-law/107599462'
p467
aS'/v/the-doug-scott-route/107116449'
p468
aS'/v/crunchy-frogs/107234534'
p469
aS'/v/excalibur/107251263'
p470
aS'/v/lizard-breath/107116433'
p471
aS'/v/pabst-smear/107116440'
p472
aS'/v/thursday-knights/107116786'
p473
aS'/v/circuit-breaker/107234553'
p474
aS'/v/dos-pescadores/107116792'
p475
aS'/v/the-throb/107227237'
p476
aS'/v/pictures-of-lily/107227259'
p477
aS'/v/gw-loves-peanut-butter/107258958'
p478
aS'/v/piss--vinegar/107268197'
p479
aS'/v/pigeon-holer/107258967'
p480
aS'/v/fairway-to-heaven/107259162'
p481
aS'/v/power-failure/108726609'
p482
aS'/v/lights-out/107265385'
p483
aS'/v/dog-face/107312372'
p484
aS'/v/good-friday/107802812'
p485
aS'/v/safety-dance/107802831'
p486
aS'/v/cochise-crack/107828947'
p487
aS'/v/poodle-boy/108395644'
p488
aS'/v/rappel-chimney/106876374'
p489
aS'/v/pigeon-crack/106215687'
p490
aS'/v/hanging-humor/106215691'
p491
aS'/v/retro-man/106215682'
p492
aS'/v/seeking-sleazy-squeezes/106215702'
p493
aS'/v/two-minute-crack/106216395'
p494
aS'/v/unknown/106265245'
p495
aS'/v/rock-a-bye-baby/106216373'
p496
aS'/v/tradmania/106216359'
p497
aS'/v/the-devil-in-miss-jones/106217697'
p498
aS'/v/todds-mole-hill/106217709'
p499
aS'/v/equilibrium/106217733'
p500
aS'/v/dark-justice/106217725'
p501
aS'/v/regular-route/106271493'
p502
aS'/v/fly-by-night/106787006'
p503
aS'/v/arial-boundaries/106786952'
p504
aS'/v/aerial-fantasy/106786966'
p505
aS'/v/mr-rodgers-neighborhood/106786989'
p506
aS'/v/fantasy/106786970'
p507
aS'/v/farr-side/106787020'
p508
aS'/v/dark-side/106787027'
p509
aS'/v/thin-red-line/106786978'
p510
aS'/v/spraypaint/106787034'
p511
aS'/v/positively-negative/106787040'
p512
aS'/v/smug-alert/106995916'
p513
aS'/v/who-killed-kenny/106995747'
p514
aS'/v/cartman/106995925'
p515
aS'/v/hippy-digger/106995932'
p516
aS'/v/make-love-not-warcraft/106997218'
p517
aS'/v/chefs-meatballs/106995940'
p518
aS'/v/scuzzlebutt/106995936'
p519
aS'/v/mr-hankey/106997229'
p520
aS'/v/temptation/108132901'
p521
aS'/v/drive-by-trucker/108131277'
p522
aS'/v/ricardo-gets-an-anal-probe/108132923'
p523
aS'/v/cure-for-the-hangover/106998050'
p524
aS'/v/anchored-to-the-sky/106998080'
p525
aS'/v/american-gladiator/106997995'
p526
aS'/v/tied-to-the-whipping-post/106997978'
p527
aS'/v/nappy-dread/107290463'
p528
aS'/v/the-grinch/107290481'
p529
aS'/v/bardini-wall/107290942'
p530
aS'/v/lemhi-winds/107295541'
p531
aS'/v/alien-pod/107695397'
p532
aS'/v/team-trailer/107695410'
p533
aS'/v/58-crack/107691242'
p534
aS'/v/hungry-eyes/107690735'
p535
aS'/v/rock-in-my-sports-bra/107693367'
p536
aS'/v/11-oclock/107695419'
p537
aS'/v/the-bicycle-thief/107695402'
p538
aS'/v/head-on-a-silver-platypus/107690646'
p539
aS'/v/disappearing-hat-trick/107693373'
p540
aS'/v/4-alarm-fire/107690680'
p541
aS'/v/hoppe-hill/107690694'
p542
aS'/v/sleepwalker/107872008'
p543
aS'/v/stingray/107690757'
p544
aS'/v/goat-meal/107690721'
p545
aS'/v/orbit/107690780'
p546
aS'/v/whats-the-point/107691226'
p547
aS'/v/black-betty/107690664'
p548
aS'/v/black-bear/107693379'
p549
aS'/v/hustle-and-flow/107690702'
p550
aS'/v/toys-in-the-attic/107757601'
p551
aS'/v/after-midnight/107768475'
p552
aS'/v/computer-girl/107830976'
p553
aS'/v/life-without-beer/107768402'
p554
aS'/v/midnight-visitor/107768433'
p555
aS'/v/snapper/107830952'
p556
aS'/v/warm-up-2/108134122'
p557
aS'/v/warm-up-1/108134132'
p558
aS'/v/standard-warm-up/109279111'
p559
aS'/v/stiff-warm-up/108220723'
p560
aS'/v/seven-arrows/108134082'
p561
aS'/v/ghost-in-the-shell/108134072'
p562
aS'/v/middle-man/108186677'
p563
aS'/v/white-rhino/108322069'
p564
aS'/v/time-will-tell/109167898'
p565
aS'/v/clips-from-the-bong/108134111'
p566
aS'/v/yukon-gold/108322064'
p567
aS'/v/bean-fiddler/108134100'
p568
aS'/v/als-diner/108134093'
p569
aS'/v/unknown/108134164'
p570
aS'/v/unknown-2/108134174'
p571
aS'/v/cicada/108134181'
p572
aS'/v/gi-joe-bouncy-tank/108134220'
p573
aS'/v/ebr-1/108134341'
p574
aS'/v/yellow-man/108134263'
p575
aS'/v/martini/108134332'
p576
aS'/v/shaken-not-stirred/108220733'
p577
aS'/v/dinner-roll/108322048'
p578
aS'/v/make-it-a-double-/108286209'
p579
aS'/v/get-jiggy-widget/108154051'
p580
aS'/v/47/108178866'
p581
aS'/v/48/108168069'
p582
aS'/v/48a/108191155'
p583
a.