(lp0
S'/v/tooele-tower/105976912'
p1
aS'/v/northeast-buttress/105717937'
p2
aS'/v/the-moonlight-buttress-clean-aid/105717718'
p3
aS'/v/sheer-lunacy/105718489'
p4
aS'/v/sheer-lunacy-free/106748268'
p5
aS'/v/the-moonlight-buttress-free/106138026'
p6
aS'/v/cave-route/105788835'
p7
aS'/v/touchstone-wall/105717787'
p8
aS'/v/squeeze-play/105792795'
p9
aS'/v/tales-of-flails/106080079'
p10
aS'/v/flip-of-a-coin/106080088'
p11
aS'/v/cynthias-hand-job/106972226'
p12
aS'/v/cherry-crack/105792767'
p13
aS'/v/the-fat-hedral/105811595'
p14
aS'/v/scarlet-begonias/105811583'
p15
aS'/v/fails-of-power/105792792'
p16
aS'/v/intruder/106080084'
p17
aS'/v/electrica/106415417'
p18
aS'/v/dire-wolf/106323388'
p19
aS'/v/iron-messiah/105717823'
p20
aS'/v/swoop-gimp-or-be-dust/105942177'
p21
aS'/v/unknown-left---aka-toilet-crack-left/105717850'
p22
aS'/v/right-toilet-bowl-crack/108617444'
p23
aS'/v/tourist-crack/105717835'
p24
aS'/v/monkeyfinger/105717820'
p25
aS'/v/the-silverback/106737328'
p26
aS'/v/vernal-equinox/105717883'
p27
aS'/v/the-megamahedral/105717856'
p28
aS'/v/12-route/105717895'
p29
aS'/v/dost-mitra/107312510'
p30
aS'/v/namaste/105717892'
p31
aS'/v/huecos-rancheros/105718117'
p32
aS'/v/twins-paradox/107476507'
p33
aS'/v/sand-surfin/105718126'
p34
aS'/v/pulp-friction/105718123'
p35
aS'/v/last-rites/105796256'
p36
aS'/v/pins-and-needles/105718120'
p37
aS'/v/hall-of-smears/105796265'
p38
aS'/v/sunlight-buttress/106074786'
p39
aS'/v/tricks-of-the-trade/105717898'
p40
aS'/v/desert-shield/105717934'
p41
aS'/v/the-headache/105718186'
p42
aS'/v/the-migraine/106711052'
p43
aS'/v/ashtar-command/105792804'
p44
aS'/v/the-gypsys-curse/107273263'
p45
aS'/v/remnants-of-a-party/107287419'
p46
aS'/v/kung-fu-fighter/107170417'
p47
aS'/v/boring-crack/107770527'
p48
aS'/v/bits-and-pieces/105923421'
p49
aS'/v/shunes-buttress/105880156'
p50
aS'/v/rites-of-passage/106128780'
p51
aS'/v/crack-in-the-cosmic-egg/105942465'
p52
aS'/v/voice-from-the-dust/105928716'
p53
aS'/v/plan-b/105949019'
p54
aS'/v/just-another-jam/106972207'
p55
aS'/v/riddlers-delight/106655018'
p56
aS'/v/made-to-be-broken/105967843'
p57
aS'/v/locksmith-dihedral/106111398'
p58
aS'/v/led-by-sheep/106368738'
p59
aS'/v/the-vigil/106116794'
p60
aS'/v/silmaril/106135645'
p61
aS'/v/weeping-rock-chimneys-left-side/108299701'
p62
aS'/v/big-lebowski/106569989'
p63
aS'/v/cowboy-ridge/106601197'
p64
aS'/v/tatoween/107760393'
p65
aS'/v/junk-in-the-trunk/106779359'
p66
aS'/v/salty-dog-arete/107877239'
p67
aS'/v/gunswinger/107877245'
p68
aS'/v/take-back-the-rainbow/108818050'
p69
aS'/v/smashmouth/106754188'
p70
aS'/v/crimson-king/106775128'
p71
aS'/v/immaculate-conception/106775032'
p72
aS'/v/danielson/107113327'
p73
aS'/v/miagi/107090651'
p74
aS'/v/hong-kong-phooey/106959758'
p75
aS'/v/japanimation/106775149'
p76
aS'/v/enter-the-dragon/107963789'
p77
aS'/v/inner-chi/106775164'
p78
aS'/v/casual-sex/107859984'
p79
aS'/v/flake-route/107860022'
p80
aS'/v/coke-explosion/108014681'
p81
a.