(lp0
S'/v/roach-addition/105715613'
p1
aS'/v/soler-eclipse/105715544'
p2
aS'/v/fritzs-fantasy/105715538'
p3
aS'/v/buckspeck/106211980'
p4
aS'/v/carls-face/105885049'
p5
aS'/v/klondike/105715085'
p6
aS'/v/california-dreaming/105715754'
p7
aS'/v/tintin-does-doughnuts/105819995'
p8
aS'/v/eo-friction/105750949'
p9
aS'/v/clam-shell/106812614'
p10
aS'/v/cold-finger/105750952'
p11
aS'/v/drop-zone/105751000'
p12
aS'/v/mickey-mantle/105838414'
p13
aS'/v/gunga-din/105750955'
p14
aS'/v/spider-god/105757891'
p15
aS'/v/southwest-friction/105751657'
p16
aS'/v/orbital-ridge/105757570'
p17
aS'/v/piece-of-dirt/105751015'
p18
aS'/v/cool-jet/105762141'
p19
aS'/v/jakes-variation/106242426'
p20
aS'/v/friction-slide/105762492'
p21
aS'/v/in-through-the-out-door-formerly-entered-as-water-streak-ii/105760797'
p22
aS'/v/etude-for-the-right-hand/105752122'
p23
aS'/v/etude-for-the-left-hand/105752125'
p24
aS'/v/straight-4-ward/106173018'
p25
aS'/v/slut/105756961'
p26
aS'/v/par-four/105818192'
p27
aS'/v/hemoglobin/106503675'
p28
aS'/v/pretty/107741865'
p29
aS'/v/stand-and-deliver/105755002'
p30
aS'/v/ejector-rejector/105756964'
p31
aS'/v/outrider/106174935'
p32
aS'/v/knee-grinder/106494945'
p33
aS'/v/bat-heaven/105761055'
p34
aS'/v/war-zone/105752152'
p35
aS'/v/nemos-nemesis/107133606'
p36
aS'/v/old-easy-arete-aka-arettez-maintenant/105981926'
p37
aS'/v/grunt-lieback/105757186'
p38
aS'/v/arch-stanton/107310492'
p39
aS'/v/eleven-cent-moon/105752242'
p40
aS'/v/reading-raymond-chandler-aka-practice-aid-climb/105764025'
p41
aS'/v/pipeline/105843027'
p42
aS'/v/mr-rockbiter/105818097'
p43
aS'/v/dollywood/108275778'
p44
aS'/v/space-oddity-aka-significant-local/105752221'
p45
aS'/v/black-starr-chimney/106268007'
p46
aS'/v/unknown-left-of-maiden/107231314'
p47
aS'/v/first-iteration/105760671'
p48
aS'/v/flake-o-saurus/106171718'
p49
aS'/v/lichen-lung/105756958'
p50
aS'/v/second-iteration/105757045'
p51
aS'/v/rowdy-joe-bad/105765204'
p52
aS'/v/walking-up-to-zion/105758754'
p53
aS'/v/heads-of-the-valley/105976163'
p54
aS'/v/misfits/105763935'
p55
aS'/v/gypsie-fire/107611857'
p56
aS'/v/monkey-and-the-engineer/107318172'
p57
aS'/v/rip-chords/107611862'
p58
aS'/v/middle-staircase/106933629'
p59
aS'/v/madiera-beach/107261911'
p60
aS'/v/priests-are-perverts-too/107325288'
p61
aS'/v/safari-winch-ride/107261930'
p62
aS'/v/phipps-gardens/107579617'
p63
aS'/v/back-to-bucket-country/107579752'
p64
aS'/v/five-days-one-summer/106956480'
p65
aS'/v/lucky-groove/106244272'
p66
aS'/v/mountainside-hipsters-aka-aspen-fantasy-land/106244286'
p67
aS'/v/chivalry-is-dead/106852986'
p68
aS'/v/alien-dave/107318105'
p69
aS'/v/walking-the-board/107611875'
p70
aS'/v/fun-button-aka-muscle-beach/106956464'
p71
aS'/v/intoxica/107609266'
p72
aS'/v/noxious-invasives/106956445'
p73
aS'/v/muff-divers/107327679'
p74
aS'/v/transporter/107327653'
p75
aS'/v/studebaker/106908272'
p76
aS'/v/roxys-shrinner-brigade/107694387'
p77
aS'/v/bitch-therapy/107694373'
p78
aS'/v/the-all-weather-circus/107694338'
p79
aS'/v/the-convict/109253292'
p80
aS'/v/vowel-movement/107815832'
p81
aS'/v/country-western-swing-aka-mystery-blocks/106446032'
p82
aS'/v/tomb-raider/107225705'
p83
aS'/v/electric-gypsy-moth/106509020'
p84
aS'/v/the-thief/108299139'
p85
aS'/v/bragging-about-jesus/105761196'
p86
aS'/v/sketch-palsy/105761199'
p87
aS'/v/leftovers/105833798'
p88
aS'/v/times-flies-when-youre-alive/105833808'
p89
aS'/v/inconceivable/105833803'
p90
aS'/v/do-the-right-thing/105842289'
p91
aS'/v/as-you-wish/105842297'
p92
aS'/v/power-trip/106165580'
p93
aS'/v/red-chili/105957709'
p94
aS'/v/rock-candy-nugget/106166238'
p95
aS'/v/muy-macho/105842722'
p96
aS'/v/crackin-the-cherry/105842717'
p97
aS'/v/wild-at-heart/105847669'
p98
aS'/v/blitzkrieg/106166247'
p99
aS'/v/djs/106075208'
p100
aS'/v/going-to-extremes/106075228'
p101
aS'/v/yellow-knight/106075257'
p102
aS'/v/echoes-in-the-fall/107134555'
p103
aS'/v/shake-your-money-maker/106229940'
p104
aS'/v/colors-of-heaven/105847524'
p105
aS'/v/schools-out/105846613'
p106
aS'/v/number-one-enemy-aka-popsicle-sandwich/107181611'
p107
aS'/v/wagon-wheel-of-death/106198625'
p108
aS'/v/head-like-a-hole/106002940'
p109
aS'/v/mommas-mental-medication/106794559'
p110
aS'/v/jackabite/107059683'
p111
aS'/v/happiness-in-slavery/105827047'
p112
aS'/v/screaming-night-hog/105819657'
p113
aS'/v/ekv-exo-atmospheric-kill-vehicle/105956405'
p114
aS'/v/the-burden-of-immortality/106003617'
p115
aS'/v/calm-like-a-bomb/106159336'
p116
aS'/v/aunt-jemimas-bisquick-thunderdome/106159361'
p117
aS'/v/crown-prince-abdullah/106826452'
p118
aS'/v/fake-snake/106229916'
p119
aS'/v/douggie-and-jimmys-excellent-adventure/106229924'
p120
aS'/v/beer-bong/105846621'
p121
aS'/v/hooray-for-boobies/105856733'
p122
aS'/v/itty-bitty-titty-comittee/107311854'
p123
aS'/v/wired-me-awake/105856207'
p124
aS'/v/orange-likin-delight/105856616'
p125
aS'/v/lil-smokey-goes-to-the-mondo/107242424'
p126
aS'/v/i-was-a-teen-age-ronald-mcdonald/105846630'
p127
aS'/v/stereosonic-keyboard-of-death/105957130'
p128
aS'/v/air-guitar/107726777'
p129
aS'/v/resurrection-of-a-solid-gold-rock-star/105856611'
p130
aS'/v/shafts-big-score/106789087'
p131
aS'/v/b-1-bomber-dude/105853262'
p132
aS'/v/time-machine-yogi/105846639'
p133
aS'/v/stop-talkin-and-start-chalkin/106239756'
p134
aS'/v/pussy-control/106553547'
p135
aS'/v/bikini-girls-with-machine-guns/105847535'
p136
aS'/v/hanoi-hilton/105844805'
p137
aS'/v/bikini-wax/106553555'
p138
aS'/v/mr-poopy-pants/105847544'
p139
aS'/v/killer-karma/105847550'
p140
aS'/v/rattlesnake-shake/106239714'
p141
aS'/v/i-fought-the-law/105847561'
p142
aS'/v/architects-on-acid/106159446'
p143
aS'/v/espantabruja-the-witch-scarer/106159436'
p144
aS'/v/home-alone/106480421'
p145
aS'/v/soup-sandwich/107200458'
p146
aS'/v/plea-bargain/105853386'
p147
aS'/v/freaks-and-phonies/105853405'
p148
aS'/v/not-quite-stan/105853360'
p149
aS'/v/sexorcisto/105856762'
p150
aS'/v/limestoned/105853353'
p151
aS'/v/character-witness/105853365'
p152
aS'/v/always-keep-it-loaded/105956236'
p153
aS'/v/take-this-brother/106225454'
p154
aS'/v/the-glug-glug/106818415'
p155
aS'/v/racing-babies--lounging-like-a-roman/105856788'
p156
aS'/v/the-eldorado-coral-club/106225449'
p157
aS'/v/pre-spice-blow/105855555'
p158
aS'/v/crossbow-chaos-theory/107199345'
p159
aS'/v/pbr-celebration/107774561'
p160
aS'/v/psychedellic-milk-painter/106254320'
p161
aS'/v/i-just-do-eyes/105855562'
p162
aS'/v/hell-yes-i-want-cheesy-poofs/106537679'
p163
aS'/v/slightly-toasted-cracker/107199371'
p164
aS'/v/crazy-wynona/106231339'
p165
aS'/v/macaroni/106254325'
p166
aS'/v/great-green-gobs-of-greasy-grimey-greenie-guts/106200439'
p167
aS'/v/euro-trash-girl/106002969'
p168
aS'/v/werewolves-of-london/106200458'
p169
aS'/v/wafer-thin-mint/105856794'
p170
aS'/v/right-el-shinto/107825083'
p171
aS'/v/wyoming-flower-child/105856800'
p172
aS'/v/dope-shinto/105856679'
p173
aS'/v/center-el-shinto/105856684'
p174
aS'/v/wutangs-secret-shinto-ride/106254330'
p175
aS'/v/wu-tangs-wild-shinto-ride/108356118'
p176
aS'/v/left-el-shinto/107290020'
p177
aS'/v/tutu-man/105856699'
p178
aS'/v/pussytoes/105856693'
p179
aS'/v/death-metal-navajo/106820232'
p180
aS'/v/the-cloud-peak-vista-traverse-company/106820240'
p181
aS'/v/team-whiny-baby-/106820213'
p182
aS'/v/tangerine-fat-explosion/107755911'
p183
aS'/v/nebachanezer/107200580'
p184
aS'/v/there-is-no-spoon/107200557'
p185
aS'/v/trinitys-ass/107250777'
p186
aS'/v/escape-from-the-pod/105856705'
p187
aS'/v/little-smokey/106002958'
p188
aS'/v/kielbasa-/106893264'
p189
aS'/v/esplanada/106002952'
p190
aS'/v/dances-with-cows/108177883'
p191
aS'/v/blue-light-special/107773352'
p192
aS'/v/anarchy-and-an-ak-47/106239765'
p193
aS'/v/some-boys-never-learn/105856626'
p194
aS'/v/cosmic-pillar-of-frenzy/107251187'
p195
aS'/v/wicked-as-an-m-16/105844811'
p196
aS'/v/pump-me-like-a-shotgun/105956228'
p197
aS'/v/pocket-rocket/106158261'
p198
aS'/v/cows-ate-my-hammock/106158273'
p199
aS'/v/sidewalk-610/108233279'
p200
aS'/v/where-the-sidewalk-ends/105856656'
p201
aS'/v/sheep-reaction/107293294'
p202
aS'/v/if-dreams-were-thunder/108233079'
p203
aS'/v/great-white-buffalo/105856713'
p204
aS'/v/blackalicious/105856725'
p205
aS'/v/meet-me-in-heaven/105856729'
p206
aS'/v/lucky-bozo/106492220'
p207
aS'/v/i-love-the-big-top/106242038'
p208
aS'/v/step-right-this-way/106159394'
p209
aS'/v/you-gotta-play-to-win/107311834'
p210
aS'/v/circus-in-the-wind/105856757'
p211
aS'/v/sucker-born-every-minute/106159417'
p212
aS'/v/the-barnum-route/107219982'
p213
aS'/v/circus-in-my-pants/106159375'
p214
aS'/v/thor/105956413'
p215
aS'/v/bobbys-got-a-dirty-mouth/105956245'
p216
aS'/v/captain-insano/106159245'
p217
aS'/v/mikes-got-a-dirty-diaper/106159305'
p218
aS'/v/moltar/106159297'
p219
aS'/v/weight-of-the-world/107859007'
p220
aS'/v/napoleons-highchair/107213998'
p221
aS'/v/world-leader-pretend/105956310'
p222
aS'/v/boy-howdy/106254350'
p223
aS'/v/you-got-nothin-on-me/109286163'
p224
aS'/v/big-yellow-butterfly/106254343'
p225
aS'/v/silly-rabbit/108282088'
p226
aS'/v/tricks-for-you/106820806'
p227
aS'/v/ooh-la-la/108364923'
p228
aS'/v/trouble-in-the-forest-/109380079'
p229
aS'/v/great-white-behemoth/105956328'
p230
aS'/v/pick-pocket/106893248'
p231
aS'/v/neutral-spirit/106313263'
p232
aS'/v/kyberspace/107867565'
p233
aS'/v/hellion/105956335'
p234
aS'/v/tumbleweed/107200613'
p235
aS'/v/greenie-invasion/107200621'
p236
aS'/v/heathen/106230869'
p237
aS'/v/strangely-compelled/108253840'
p238
aS'/v/umpalumpa-humpachu/106499901'
p239
aS'/v/godfather-1/106499917'
p240
aS'/v/godfather-2/106499931'
p241
aS'/v/as-wicked-as-it-seems/106230860'
p242
aS'/v/alien-semen-rash/108332984'
p243
aS'/v/gloom/107774499'
p244
aS'/v/suck-the-nipple/108329849'
p245
aS'/v/go-back-to-colorado/108423152'
p246
aS'/v/winged-lizard/107308040'
p247
aS'/v/death-flake-from-hell/106818379'
p248
aS'/v/insane-hound-posse/106199504'
p249
aS'/v/nine-pins/106241978'
p250
aS'/v/save-the-best-for-last/106198609'
p251
aS'/v/zombie-leprachauns/107707326'
p252
aS'/v/char-char-boinks/106242004'
p253
aS'/v/atheist-childhood/106232722'
p254
aS'/v/shaared/106840654'
p255
aS'/v/born-again/106232740'
p256
aS'/v/joy-of-heresy/106537631'
p257
aS'/v/unsubstantiated-propaganda/106537636'
p258
aS'/v/bazooka-face/106840672'
p259
aS'/v/the-last-starfighter/106537719'
p260
aS'/v/july-jihad/106537649'
p261
aS'/v/auto-erotic-decapitation/106232767'
p262
aS'/v/women-vs-the-eternal-masculine/106232758'
p263
aS'/v/babareena-pass/107696106'
p264
aS'/v/snake-flake/106239730'
p265
aS'/v/sensory-system/106239784'
p266
aS'/v/a-few-degrees-of-freedom/106239793'
p267
aS'/v/quote-the-raven/106242017'
p268
aS'/v/no-more-florida-red-necks/106242003'
p269
aS'/v/in-the-public-domain/106242008'
p270
aS'/v/unchained-malady/106242012'
p271
aS'/v/black-humor/107308022'
p272
aS'/v/strange-days/106242059'
p273
aS'/v/smoke-tunnel/106499845'
p274
aS'/v/ice-station-zebra/106242043'
p275
aS'/v/val-thoren-snake-child/107200489'
p276
aS'/v/iceman-cometh/107216203'
p277
aS'/v/hunting-wolverines/107216212'
p278
aS'/v/fun-stripe/107225287'
p279
aS'/v/super-x-ray-spectacles-/106818355'
p280
aS'/v/luthor/106244827'
p281
aS'/v/jesus-christ-super-man/107796272'
p282
aS'/v/captain-tombstoner/107313889'
p283
aS'/v/jesus-christ-super-jew/107255874'
p284
aS'/v/big-bear-memorial/107199072'
p285
aS'/v/doberman-face/107216195'
p286
aS'/v/banga/107771954'
p287
aS'/v/munsterlander/107216187'
p288
aS'/v/middle-of-the-road/108372282'
p289
aS'/v/mufassa/107771966'
p290
aS'/v/bulldog-arete/107771878'
p291
aS'/v/acid-mother-temple/107722735'
p292
aS'/v/vitamin-i/106491683'
p293
aS'/v/face-melter-roof/106820788'
p294
aS'/v/cocaine-rodeo/106818981'
p295
aS'/v/adrenochrome-trundle/106819074'
p296
aS'/v/mater-hater/107773605'
p297
aS'/v/vitamin-k/107755077'
p298
aS'/v/high-water-aka-fpf/107652681'
p299
aS'/v/which-ones-pink/107707302'
p300
aS'/v/have-you-heard-about-the-sellout/107707306'
p301
aS'/v/floyd-direct/107059835'
p302
aS'/v/the-gravy-train/107059786'
p303
aS'/v/the-name-of-the-game/107059757'
p304
aS'/v/shaggys-marijuana-flag-/107187208'
p305
aS'/v/john-henry-/107187196'
p306
aS'/v/shaker/107187218'
p307
aS'/v/mellow-slide-into-coolsville/107768828'
p308
aS'/v/stick-it-into-coolsville/107714315'
p309
aS'/v/frat-boys-with-razor-blades/107200644'
p310
aS'/v/killer-frat-cat/107313936'
p311
aS'/v/moon-units-secret-shinto-ride/107200706'
p312
aS'/v/elvis-shades-rule/107200694'
p313
aS'/v/vikings-and-ghetto-blasters/107200743'
p314
aS'/v/man-bear-pig/107779091'
p315
aS'/v/burning-grandma-bones-/107276829'
p316
aS'/v/crematorium-roof/107727542'
p317
aS'/v/satan-is-my-motor/107251225'
p318
aS'/v/water-into-wine/107743283'
p319
aS'/v/pooh-corner/107743310'
p320
aS'/v/limb-from-limb/107743315'
p321
aS'/v/tiger-tries-ten-sleep/107743325'
p322
aS'/v/leap-draw/107743321'
p323
aS'/v/suits-and-boots/107755253'
p324
aS'/v/dirt-gator/107755218'
p325
aS'/v/red-dawn/107755261'
p326
aS'/v/cochamo-speedball/107755242'
p327
aS'/v/little-smoky-picnics-at-lake-point/108221688'
p328
aS'/v/the-gooey-grasshopper/107755206'
p329
aS'/v/triple-double/107755282'
p330
aS'/v/hail-mary/107755296'
p331
aS'/v/40-days-in-the-haze/107929724'
p332
aS'/v/burl-ives-is-dead/108221665'
p333
aS'/v/last-of-the-pagans/108222308'
p334
aS'/v/oftedal-serenade/108209046'
p335
aS'/v/full-charge/108209091'
p336
aS'/v/sleight-of-hand/107223286'
p337
aS'/v/plinko/108168278'
p338
aS'/v/chunky-monkey/105828314'
p339
aS'/v/slippery-avocado/105829719'
p340
aS'/v/red-dog/105829725'
p341
aS'/v/semper-fi/105829730'
p342
aS'/v/hot-buttered-soul/105828310'
p343
aS'/v/superchunk/105825940'
p344
aS'/v/the-stinger/105826040'
p345
aS'/v/easy-day-for-a-lady/106251354'
p346
aS'/v/greystoke/107071109'
p347
aS'/v/gleaming-the-cube/106819293'
p348
aS'/v/low-voltage/105961739'
p349
aS'/v/short-circuit/105962938'
p350
aS'/v/batteries-not-included/105961747'
p351
aS'/v/take-me-to-the-river/106469597'
p352
aS'/v/distant-thunder/105961516'
p353
aS'/v/exum-arete/105834006'
p354
aS'/v/monkey-flower/105833998'
p355
aS'/v/blimpie/105841191'
p356
aS'/v/do-it-for-doug/106236476'
p357
aS'/v/clowns-and-jokers/105985900'
p358
aS'/v/rodeo-queen/106001985'
p359
aS'/v/betty-tendon-blaster/105835530'
p360
aS'/v/thelma/106001975'
p361
aS'/v/copenhagen/105835522'
p362
aS'/v/i-against-i/105835526'
p363
aS'/v/alive-in-wyoming/105835308'
p364
aS'/v/8-second-ride/106001970'
p365
aS'/v/buck-dancer/105998946'
p366
aS'/v/quickdraw-mcgraw/105998953'
p367
aS'/v/bulldoggin/105835312'
p368
aS'/v/shady-grove/106082264'
p369
aS'/v/a-thousand-cranes/106083470'
p370
aS'/v/mulvado-edge-electric-arch/106083513'
p371
aS'/v/muff-buster/106083506'
p372
aS'/v/hoi-polloi/106083602'
p373
aS'/v/jam-or-slam/106083610'
p374
aS'/v/hook-it/106083614'
p375
aS'/v/drill-and-repetition/106083618'
p376
aS'/v/bolt-face/106083606'
p377
aS'/v/la-bamba/106083635'
p378
aS'/v/naughty-guides/106083639'
p379
aS'/v/mcflatus-roof/106083631'
p380
aS'/v/ovulation-station-/106762399'
p381
aS'/v/love-life/105840256'
p382
aS'/v/fear-of-wild-places/105840260'
p383
aS'/v/in-orbit/105840276'
p384
aS'/v/small-steps/105840280'
p385
aS'/v/blue-moon/106379292'
p386
aS'/v/slabadellic/108140597'
p387
aS'/v/sos/106001262'
p388
aS'/v/labor-of-love/106076830'
p389
aS'/v/addled-ambitions/108301590'
p390
aS'/v/landscape-architecture/106078463'
p391
aS'/v/pug-addicts/108301605'
p392
aS'/v/the-munge-kin/106078459'
p393
aS'/v/chosspectors-choice-nugs/106900170'
p394
aS'/v/chemical-endeavors/106078499'
p395
aS'/v/cleans-up-well/106078469'
p396
aS'/v/wanderlust/106078492'
p397
aS'/v/facelift/106078473'
p398
aS'/v/buy-the-ticket/106078477'
p399
aS'/v/take-the-ride/106078483'
p400
aS'/v/shorty/106738565'
p401
aS'/v/vice-gripped/106272837'
p402
aS'/v/jesus-loves-you/106158014'
p403
aS'/v/bitch-with-a-broomstick/106157907'
p404
aS'/v/search/106157926'
p405
aS'/v/feelin-all-right/106158029'
p406
aS'/v/rescue/106158314'
p407
aS'/v/rub-the-nub/106158062'
p408
aS'/v/bobby-and-the-bosch/106157983'
p409
aS'/v/egyptian/106158125'
p410
aS'/v/silent-spaz/106158139'
p411
aS'/v/pea-green-limosine/106158041'
p412
aS'/v/community-service/106157912'
p413
aS'/v/spring-cleaning/106157962'
p414
aS'/v/illegal-dihedral/106157896'
p415
aS'/v/balls/107761525'
p416
aS'/v/light-tension/106157888'
p417
aS'/v/aah-me-wrikey/106157943'
p418
aS'/v/pocket-full-of-pigeons/107844143'
p419
aS'/v/jack-o-buckets/107844177'
p420
aS'/v/dirty-charlotte/108209588'
p421
aS'/v/premonition/108209350'
p422
aS'/v/this-aint-no-disco/108209713'
p423
aS'/v/go-west-young-man/105829080'
p424
aS'/v/soup-sandwich/105829092'
p425
aS'/v/a-beautiful-life/105829088'
p426
aS'/v/corner-drug/105827628'
p427
aS'/v/soul-finger/106605255'
p428
aS'/v/drug-enemy/105828037'
p429
aS'/v/addiction/105827059'
p430
aS'/v/dogs-of-war/105827636'
p431
aS'/v/sam-i-am/107369506'
p432
aS'/v/action-candy/105827646'
p433
aS'/v/firecracker-kid/105827734'
p434
aS'/v/harvest-rush/108935768'
p435
aS'/v/global-warm-up/106727787'
p436
aS'/v/elmos-fish/105827659'
p437
aS'/v/king-of-hearts/106737351'
p438
aS'/v/harvest-moon/105827655'
p439
aS'/v/second-hand-nova/105828459'
p440
aS'/v/powderfinger/106883120'
p441
aS'/v/sign-of-the-times-first-pitch/106736615'
p442
aS'/v/brown-trout/105828029'
p443
aS'/v/after-the-gold-rush/106234475'
p444
aS'/v/blood-line/105827671'
p445
aS'/v/sun-spot/106727827'
p446
aS'/v/blue-moon/105827650'
p447
aS'/v/bush-doctor/105827663'
p448
aS'/v/back-up-binkie/106710731'
p449
aS'/v/pocket-kalkulator/105887849'
p450
aS'/v/spook-eyes/107092600'
p451
aS'/v/killer/105827117'
p452
aS'/v/ring-of-fire/106207830'
p453
aS'/v/cartoon-graveyard/106182849'
p454
aS'/v/the-urchin/106142995'
p455
aS'/v/nirvana/106182839'
p456
aS'/v/the-throne/106182853'
p457
aS'/v/samsara/106182843'
p458
aS'/v/mr-majestyk/106182864'
p459
aS'/v/endeavor-to-persevere/106199475'
p460
aS'/v/mei-day/106868873'
p461
aS'/v/girls-day-out/106042167'
p462
aS'/v/duck-soup/105827358'
p463
aS'/v/boy-i-gotta-go/105828439'
p464
aS'/v/atta-boy-girl/106445702'
p465
aS'/v/doggin-dude/106017060'
p466
aS'/v/climb-like-a-girl/106042177'
p467
aS'/v/banoffee/106017041'
p468
aS'/v/stud-alert/105827642'
p469
aS'/v/scud-alert/106041230'
p470
aS'/v/storm-of-the-century/105828453'
p471
aS'/v/you-go-girls/105828443'
p472
aS'/v/rubber-soul/105828449'
p473
aS'/v/no-left-ear/107075053'
p474
aS'/v/heaven-can-wait/105827679'
p475
aS'/v/whipperly-whopperly-walk/105827683'
p476
aS'/v/hardware/105827371'
p477
aS'/v/mergatroid/105855427'
p478
aS'/v/moe/106185518'
p479
aS'/v/fun-planet/106445761'
p480
aS'/v/biltong-rides-tornado/106445770'
p481
aS'/v/blood-brother/105827549'
p482
aS'/v/the-citadel-of-hope/106241885'
p483
aS'/v/south-paw/105989640'
p484
aS'/v/waiting-for-a-friend/106300350'
p485
aS'/v/smell-my-finger/105989635'
p486
aS'/v/grabbing-greta/106303356'
p487
aS'/v/achin-for-bootie/105855434'
p488
aS'/v/purple-galaxy/105827556'
p489
aS'/v/sorta-maybe-kinda-wild/105968949'
p490
aS'/v/candy-man-intro/105989617'
p491
aS'/v/earth-ad/106603893'
p492
aS'/v/sandman/105989631'
p493
aS'/v/candy-man/105989621'
p494
aS'/v/tooth-fairy/105989625'
p495
aS'/v/combustification/106604785'
p496
aS'/v/bust-a-nut/106604800'
p497
aS'/v/the-wilds/105827623'
p498
aS'/v/winter-storm-warning/105827707'
p499
aS'/v/fun-fun-joy-joy/106550572'
p500
aS'/v/central-pillar/105871745'
p501
aS'/v/spike-n-vein/105827702'
p502
aS'/v/put-down-your-ducky/106244989'
p503
aS'/v/more-funky-than-gunky/105827721'
p504
aS'/v/childs-play/105828033'
p505
aS'/v/the-guyver/106445750'
p506
aS'/v/the-fallen-idol-pt-i/105829036'
p507
aS'/v/billie-idol-aka-fallen-idol-p2/105829046'
p508
aS'/v/kamiakin/107075003'
p509
aS'/v/no-more-heroes/105829066'
p510
aS'/v/winds-of-war/106945815'
p511
aS'/v/diemos/107092614'
p512
aS'/v/eros/105829055'
p513
aS'/v/face-dancer/105829031'
p514
aS'/v/fallen-idol/106445385'
p515
aS'/v/obscured-by-cloud/106132559'
p516
aS'/v/z-boys/106445731'
p517
aS'/v/happy-wheel-/106443441'
p518
aS'/v/dogtown/106445725'
p519
aS'/v/dreaming-the-rasta-bus/106737435'
p520
aS'/v/pet-arete/106444273'
p521
aS'/v/isolate-and-dominate-/107115974'
p522
aS'/v/boys-of-brazil/107115968'
p523
aS'/v/burly/106800412'
p524
aS'/v/original-route/106800426'
p525
aS'/v/steel-pulse/107116007'
p526
aS'/v/full-irations/107115995'
p527
aS'/v/zion-train/107116000'
p528
aS'/v/chapito/106210783'
p529
aS'/v/huggys-pull-up/106210757'
p530
aS'/v/cirque-du-sauve/106234501'
p531
aS'/v/gaucho/105841216'
p532
aS'/v/ewenanimity/107708066'
p533
aS'/v/little-sport/105841235'
p534
aS'/v/the-guns-ill-never-own/105841230'
p535
aS'/v/zorro/105841220'
p536
aS'/v/poposer-cowboy/105862055'
p537
aS'/v/outlaws-on-the-run/106512700'
p538
aS'/v/one-eyed-jack/106512677'
p539
aS'/v/three-charlies/107636432'
p540
aS'/v/urban-cowboy/105841247'
p541
aS'/v/battle-for-a-wounded-knee/105841257'
p542
aS'/v/high-plains-drifter/106081850'
p543
aS'/v/tribal-war/105841251'
p544
aS'/v/every-gun-sings-its-own-song/106081853'
p545
aS'/v/poker-face-alice/105862062'
p546
aS'/v/greenhorns-in-velvet/107649866'
p547
aS'/v/chubs4u/106893050'
p548
aS'/v/phat-phinger-phrenzy/106517796'
p549
aS'/v/iron-horse-with-a-twisted-heart/106011593'
p550
aS'/v/annie-git-yer-drill/105841378'
p551
aS'/v/red-rider/105841386'
p552
aS'/v/stacked-deck/106011585'
p553
aS'/v/brown-dirt-cowgirl/107424653'
p554
aS'/v/aces-and-eights/105851505'
p555
aS'/v/never-sit-with-your-back-to-the-door/105851509'
p556
aS'/v/claim-jumper/105841382'
p557
aS'/v/red-as-a-blooming-rose/106011590'
p558
aS'/v/cowboys-are-my-only-weakness/105841394'
p559
aS'/v/roll-in-the-hay/106229329'
p560
aS'/v/winchester-pump/105841390'
p561
aS'/v/miners-delight/106234941'
p562
aS'/v/give-my-love-to-rose/106081869'
p563
aS'/v/r-is-for-redneck/106517807'
p564
aS'/v/la-vaca-peligrosa/105869766'
p565
aS'/v/pronghorn-pinnacle/106517813'
p566
aS'/v/licorice-stick/106538772'
p567
aS'/v/ticks-for-chicks/106538812'
p568
aS'/v/slave/107215714'
p569
aS'/v/wind-river-muzzel-loaders/107365485'
p570
aS'/v/saddle-up/106517818'
p571
aS'/v/britchen-strap/107424675'
p572
aS'/v/hangin-tree/107780271'
p573
aS'/v/ride-me-cowgirl/107730856'
p574
aS'/v/sugar-foot/106234853'
p575
aS'/v/dirty-sally/107730865'
p576
aS'/v/boob-loob/106081874'
p577
aS'/v/back-in-the-saddle/107248178'
p578
aS'/v/a-man-from-laramie/107365496'
p579
aS'/v/the-duke/109140587'
p580
aS'/v/whips-chaps-and-chains/105852406'
p581
aS'/v/rodeo-drive/106234928'
p582
aS'/v/diamonds-and-rain/106517680'
p583
aS'/v/the-solace-of-bolted-faces/106882008'
p584
aS'/v/saddle-tramp/105851497'
p585
aS'/v/rooster-cogburn/107265899'
p586
aS'/v/wotai/105862083'
p587
aS'/v/whoa-nelly/107185903'
p588
aS'/v/medicine-man/105862092'
p589
aS'/v/queen-of-hearts/108312602'
p590
aS'/v/when-i-was-a-young-girl-i-had-me-a-cowboy/105862088'
p591
aS'/v/court-and-spark/106020011'
p592
aS'/v/coyote-vacuum/106727622'
p593
aS'/v/burnt-beans-and-coffee/106020017'
p594
aS'/v/take-your-hat-off/105851716'
p595
aS'/v/princess-and-the-playmate/106011574'
p596
aS'/v/buffalo-soldier/106544067'
p597
aS'/v/the-devil-wears-latex/107190221'
p598
aS'/v/testosterone-alfresco/107190464'
p599
aS'/v/cowboy-poetry/105851631'
p600
aS'/v/dynamitic/105851991'
p601
aS'/v/you-picked-a-fine-climb-to-lead-me-lucille/106539681'
p602
aS'/v/ryobi-ranger/105851974'
p603
aS'/v/indian-country/105851982'
p604
aS'/v/latex-cowboy/106204607'
p605
aS'/v/ryobi-jr/106556331'
p606
aS'/v/wild-horses-couldnt-drag-me-away/106204597'
p607
aS'/v/t--t/106539712'
p608
aS'/v/ryobi-wrangler/105851970'
p609
aS'/v/jackalope--boomslang/106543029'
p610
aS'/v/the-devil-wears-spurs/105857631'
p611
aS'/v/the-prospect/105857638'
p612
aS'/v/hip-boot-romance/106548873'
p613
aS'/v/wild-horses/106544136'
p614
aS'/v/posse-on-my-tail/106539295'
p615
aS'/v/limestone-cowboy/105989612'
p616
aS'/v/two-kinds-of-justice/105862110'
p617
aS'/v/windy-city/106539040'
p618
aS'/v/wind-river-rose/105989582'
p619
aS'/v/the-shootist/105863230'
p620
aS'/v/popo-agie-pocket-pool/105989589'
p621
aS'/v/digital-stimulation/106226921'
p622
aS'/v/osita/106207322'
p623
aS'/v/caballero-del-norte/106556664'
p624
aS'/v/hot-tamale-baby/105863234'
p625
aS'/v/ruby-shooter/105989604'
p626
aS'/v/charro/105863225'
p627
aS'/v/hey-mr-vacquero/107180047'
p628
aS'/v/bob-marley/107160277'
p629
aS'/v/bobcat-logic/105862103'
p630
aS'/v/buckskin-billy/106542879'
p631
aS'/v/cowboy-joe/106543011'
p632
aS'/v/easy-ridin/106543023'
p633
aS'/v/arizona-cowgirl/106545454'
p634
aS'/v/nine-horse-johnson/106548864'
p635
aS'/v/wind-and-rattlesnakes/105863211'
p636
aS'/v/tomahawk-slam/105863220'
p637
aS'/v/rode-hard-and-put-up-wet/106226876'
p638
aS'/v/rising-from-the-plains/106207718'
p639
aS'/v/sweating-bullets/106811957'
p640
aS'/v/sweaty-bully/106811964'
p641
aS'/v/young-guns/107127531'
p642
aS'/v/lonely-are-the-brave/106811821'
p643
aS'/v/little-buckaroo/106885251'
p644
aS'/v/butch-pocket-and-the-sundance-pump/106885267'
p645
aS'/v/choke-cherry-eyes/106811748'
p646
aS'/v/american-beauty/106811737'
p647
aS'/v/mutt-ridin-monkey/108233461'
p648
aS'/v/night-flying-woman/107188194'
p649
aS'/v/californios/107188082'
p650
aS'/v/casual-entertainment/107309540'
p651
a.