(lp0
S'/v/north-face---comici/106200481'
p1
aS'/v/cima-piccola--south-arete-yellow-edge/107055014'
p2
aS'/v/south-face-buttress-1-aka-south-arete/106513460'
p3
aS'/v/south-face-buttress-2-pilastro-route-constantiniapollonio/107025318'
p4
aS'/v/via-delle-guide/106502679'
p5
aS'/v/south-face-via-miriam/106910646'
p6
aS'/v/northwest-corner/106502664'
p7
aS'/v/north-face/107153991'
p8
aS'/v/south-pillar-aka-mariakante/106502634'
p9
aS'/v/trenker/105967410'
p10
aS'/v/tissi-route/105969652'
p11
aS'/v/kasnakoff/105967418'
p12
aS'/v/messner/105967825'
p13
aS'/v/vinatzer/105967430'
p14
aS'/v/schubert-friendhip-route/105967440'
p15
aS'/v/big-micheluzzi/105969664'
p16
aS'/v/abram-arete/106900371'
p17
aS'/v/southeast-arete-via-alvera-menardi/107379766'
p18
aS'/v/spartan-slab/106026874'
p19
aS'/v/old-man-of-hoy/106621200'
p20
aS'/v/little-chamonix/106626338'
p21
aS'/v/troutdale-pinnacle/106632009'
p22
aS'/v/great-western/106523876'
p23
aS'/v/sunset-slab/106072365'
p24
aS'/v/todys-wall/106072397'
p25
aS'/v/valkyrie/106072421'
p26
aS'/v/chequers-buttress/106078388'
p27
aS'/v/goliaths-groove/106381003'
p28
aS'/v/right-unconquerable/106320842'
p29
aS'/v/left-unconquerable/106274957'
p30
aS'/v/heaven-crack/106377970'
p31
aS'/v/mississippi-buttress-direct/106303984'
p32
aS'/v/inverted-v/106509246'
p33
aS'/v/queersville/106509266'
p34
aS'/v/flying-buttress/106303979'
p35
aS'/v/flying-buttress-direct/106092352'
p36
aS'/v/the-knights-move/106205159'
p37
aS'/v/bond-street/106320851'
p38
aS'/v/embankment-2/106192177'
p39
aS'/v/embankment-3/106192169'
p40
aS'/v/embankment-1/106192192'
p41
aS'/v/the-peapod/106368821'
p42
aS'/v/cemetery-gates/106072788'
p43
aS'/v/cenotaph-corner/106072692'
p44
aS'/v/comes-the-dervish/107183506'
p45
aS'/v/fools-gold/108209706'
p46
aS'/v/creagh-dhu-wall/106639447'
p47
aS'/v/a-dream-of-white-horses/106229085'
p48
aS'/v/punsola-reniu/108692491'
p49
aS'/v/remena-nena/106624983'
p50
aS'/v/mandragora/106624776'
p51
aS'/v/valgam-deu-quin-patar-/106624810'
p52
aS'/v/delicatessan/106624833'
p53
aS'/v/ultima-del-85/106624918'
p54
aS'/v/magrana/106631901'
p55
aS'/v/entretres/106632041'
p56
aS'/v/diedra-ubsa/108827232'
p57
aS'/v/el-delfin/106548224'
p58
aS'/v/para-mis-amigos/106628784'
p59
aS'/v/sonrisa-vertical/106628801'
p60
aS'/v/toma-costanazo/106551619'
p61
aS'/v/billy-el-rapido/106628813'
p62
aS'/v/orgasmica/106554901'
p63
aS'/v/pince-sans-rire/106554139'
p64
aS'/v/maria-ponte-el-arnes/106625332'
p65
aS'/v/super-mickey/106334510'
p66
aS'/v/le-privililege-du-serpent/106334493'
p67
aS'/v/les-colonnettes/106334544'
p68
aS'/v/san-johns-pecos/106334528'
p69
aS'/v/angel-dust/107479190'
p70
aS'/v/voie-frison-roche/107704336'
p71
aS'/v/rebuffat-southeast-face/107307192'
p72
aS'/v/voie-rbuffat-baquet/107664177'
p73
aS'/v/vestpillaren/106848943'
p74
aS'/v/lundeklubben/106850829'
p75
aS'/v/forsida/106850952'
p76
aS'/v/bare-blabaer/106872370'
p77
aS'/v/saxafon/107001551'
p78
aS'/v/muhtar/107168426'
p79
aS'/v/nirvana/107180692'
p80
aS'/v/lionel-terray/106660595'
p81
aS'/v/kaweechelchen/106665785'
p82
aS'/v/happy-girlfriend/107136770'
p83
aS'/v/monahiki-elia/106804801'
p84
aS'/v/taz/106804815'
p85
aS'/v/elefantenhimmel-pt-2/107099027'
p86
aS'/v/trela/107263553'
p87
aS'/v/dna/106804759'
p88
aS'/v/aphrodite/106934266'
p89
aS'/v/ivi/106931001'
p90
aS'/v/tufantastic/106934295'
p91
aS'/v/priapos/107179233'
p92
aS'/v/nonno-ringo/107263484'
p93
aS'/v/swiss-baby/106805054'
p94
aS'/v/janas-kitchen/106804861'
p95
aS'/v/bye-bye-doc/107623918'
p96
aS'/v/komak/107262949'
p97
aS'/v/stanislas/107262980'
p98
aS'/v/thetis/106674301'
p99
aS'/v/il-pittore/107136749'
p100
aS'/v/kastor-/106805158'
p101
aS'/v/panselinos/107263597'
p102
aS'/v/carpe-diem/107263630'
p103
aS'/v/uncle-ernie/107263655'
p104
aS'/v/cyclops/107263686'
p105
aS'/v/joggel--toggel/106793403'
p106
aS'/v/harakiri/107263454'
p107
aS'/v/les-amazones/106795412'
p108
aS'/v/kerveros/106924634'
p109
aS'/v/gladiator/106924663'
p110
aS'/v/spartacus/106924655'
p111
aS'/v/laertes/107263422'
p112
aS'/v/penelope/106805241'
p113
aS'/v/poly-retsina-no-good/106805978'
p114
aS'/v/femio/107263413'
p115
aS'/v/morfeas/106805088'
p116
aS'/v/circe/107263400'
p117
aS'/v/atena/106800962'
p118
aS'/v/feta/106804904'
p119
aS'/v/calipso/106798265'
p120
aS'/v/dionysos/106798292'
p121
aS'/v/lucky-strike/107878242'
p122
aS'/v/joy-in-the-garden/107185362'
p123
aS'/v/remember-wadi-rum/106798823'
p124
aS'/v/totenhansel/106805285'
p125
aS'/v/dafni/106798812'
p126
aS'/v/axium/107830835'
p127
aS'/v/sisyphus-jr/106930978'
p128
aS'/v/serena/107262849'
p129
aS'/v/kaly-nikhla/106924706'
p130
aS'/v/nickel/107805908'
p131
aS'/v/lolita/106924855'
p132
aS'/v/mort-aux-chvres/107804629'
p133
aS'/v/armata-sikati/107960696'
p134
aS'/v/anacreonte/107182430'
p135
aS'/v/sapfo/107182406'
p136
aS'/v/quando-tramonta-il-sol/107263729'
p137
aS'/v/ammohostos-vasilevousa/107182529'
p138
aS'/v/pornokini/107263106'
p139
aS'/v/borhok/107263085'
p140
aS'/v/wild-sex/107263094'
p141
aS'/v/phineas/107263830'
p142
aS'/v/climbers-nest/107263803'
p143
aS'/v/drama/107331219'
p144
aS'/v/kvr/107263815'
p145
aS'/v/vasilis/107263842'
p146
aS'/v/nymfi/107338711'
p147
aS'/v/frapagalo/107878048'
p148
aS'/v/melodrama/107878066'
p149
aS'/v/ricounet/107878142'
p150
aS'/v/crisis/107878158'
p151
aS'/v/stkante/106630238'
p152
aS'/v/traumpfeiler-pillar-of-dreams/106804391'
p153
a.