(lp0
S'/v/garden-party/105714713'
p1
aS'/v/paperboy-centerfold/105714716'
p2
aS'/v/two-bits/105715250'
p3
aS'/v/france-by-chance/105715259'
p4
aS'/v/blockhead/105714719'
p5
aS'/v/seams-to-go/105715253'
p6
aS'/v/killer-wasp-from-hell/105714764'
p7
aS'/v/flatland-fever/105823222'
p8
aS'/v/one-finger-solution/105715262'
p9
aS'/v/better-a-hasbeen-than-a-wannabe/105715043'
p10
aS'/v/spermatose/105714920'
p11
aS'/v/getting-the-bob/105715307'
p12
aS'/v/men-without-egos/105715304'
p13
aS'/v/raspberry-corn-flakes/105715121'
p14
aS'/v/carls-bad-caverns/107246890'
p15
aS'/v/middle-of-the-road/105715214'
p16
aS'/v/weather-or-not/105715199'
p17
aS'/v/rocking-raspberries/105715448'
p18
aS'/v/dog-days-of-summer/105715169'
p19
aS'/v/somewhere-east-of-fresno/105715640'
p20
aS'/v/frosted-red-raspberry-pop-tarts/105715175'
p21
aS'/v/rp-diagonal/105715475'
p22
aS'/v/soiled-father-doves/106798600'
p23
aS'/v/lone-johnny--his-10-inch-neck/105714881'
p24
aS'/v/unnamed-3/106809050'
p25
aS'/v/easy-like-sunday/107841036'
p26
aS'/v/preparation-h/105714878'
p27
aS'/v/storm-trooper-of-love/105715601'
p28
aS'/v/liquid-sunshine/106809041'
p29
aS'/v/plea-bargain/106475798'
p30
aS'/v/lons-route/106783673'
p31
aS'/v/scar-face/106809018'
p32
aS'/v/walk-in-the-park/107630107'
p33
aS'/v/son-of-a-thousand-fathers/106475847'
p34
aS'/v/soiled-dove/106475885'
p35
aS'/v/cokes-and-crowbars/105715223'
p36
aS'/v/buster-douglas/105715364'
p37
aS'/v/tubesteak-boogie/107120367'
p38
aS'/v/buffalo-gap/106475802'
p39
aS'/v/spring-showers-bring-may-flowers/107249874'
p40
aS'/v/monsoon/107015696'
p41
aS'/v/flash-flood/105715160'
p42
aS'/v/ripsnorter/105715148'
p43
aS'/v/the-tempest/105715133'
p44
aS'/v/alice/105715139'
p45
aS'/v/beauty-and-the-beast/105865766'
p46
aS'/v/blockbuster/105865761'
p47
aS'/v/better-off-dead/105865757'
p48
aS'/v/slaughterhouse-five/105865776'
p49
aS'/v/grease/106292501'
p50
aS'/v/quest-for-fire/105886510'
p51
aS'/v/maximum-overdrive/105910625'
p52
aS'/v/armageddon/108233165'
p53
aS'/v/first-blood/106284169'
p54
aS'/v/clockwork-orange/108224747'
p55
aS'/v/morning-torque/105869298'
p56
aS'/v/courtesy-flush/105869556'
p57
aS'/v/urine-trouble/105911895'
p58
aS'/v/courtesy-drip/106882261'
p59
aS'/v/drip-dry/107749407'
p60
aS'/v/beggars-banquet/106478790'
p61
aS'/v/joint-custody/105868436'
p62
aS'/v/honeycomb/105867724'
p63
aS'/v/everythings-big-in-texas/106292493'
p64
aS'/v/dead-residents/106878952'
p65
aS'/v/international-distress/107191068'
p66
aS'/v/kill-phil/107191063'
p67
aS'/v/identity-crisis/107112867'
p68
aS'/v/lung-butter/108236742'
p69
aS'/v/winger/107196748'
p70
aS'/v/pulsating-fantasticals/107282754'
p71
aS'/v/open-your-mouth-and-say-aahhh/107282800'
p72
aS'/v/marsha-gets-creamed/109045434'
p73
aS'/v/morning-dew/108281726'
p74
aS'/v/yippey-kay-yay/105868471'
p75
aS'/v/lady-in-red/105868466'
p76
aS'/v/juggernuts/107617162'
p77
aS'/v/never-kiss-a-sleeping-wolf/105868461'
p78
aS'/v/legend-of-t/105868448'
p79
aS'/v/meet-your-maker/105888886'
p80
aS'/v/beezlebub/105887315'
p81
aS'/v/leprechaun-cowboy/106514378'
p82
aS'/v/good-day-for-a-hangin/107276588'
p83
aS'/v/blood-brother/107276623'
p84
aS'/v/where-have-all-the-cowboys-gone/108224803'
p85
aS'/v/last-of-the-mohicans/105905537'
p86
aS'/v/orphans-of-war/107196753'
p87
aS'/v/battlecry/106401332'
p88
aS'/v/last-dance/105909574'
p89
aS'/v/ricochet/106401344'
p90
aS'/v/paha-sapa-aka-chockstoned/107165465'
p91
aS'/v/pipestoned/107015770'
p92
aS'/v/peace-pipe/107015736'
p93
aS'/v/chiefed/107299377'
p94
aS'/v/totem-pole/106010509'
p95
aS'/v/the-tomahawk/106934965'
p96
aS'/v/bare-fisted-grizzly-killer/105906422'
p97
aS'/v/trail-of-tears/105906426'
p98
aS'/v/lost-soul/107182012'
p99
aS'/v/forbidden-fruit/105911856'
p100
aS'/v/migraine/106371713'
p101
aS'/v/brainfart/106292464'
p102
aS'/v/totally-flaked/106263982'
p103
aS'/v/ice-cream-headache/106371703'
p104
aS'/v/fossil-logic/106514405'
p105
aS'/v/the-joker/106934930'
p106
aS'/v/merchants-of-death/106890619'
p107
aS'/v/lethal-prescrimption/110397396'
p108
aS'/v/carp/105876102'
p109
aS'/v/static-experience/107183141'
p110
aS'/v/trouser-trout/107177018'
p111
aS'/v/bottom-feeder/105876128'
p112
aS'/v/hagfish/105876121'
p113
aS'/v/dragonfly/106933821'
p114
aS'/v/flight-of-the-bumblebee/105876150'
p115
aS'/v/flight-stimulator/109337483'
p116
aS'/v/night-train/106476805'
p117
aS'/v/locomotive-breath/106476816'
p118
aS'/v/engine-no-9/105880157'
p119
aS'/v/iron-horse/105877455'
p120
aS'/v/monorail/105877430'
p121
aS'/v/big-train/105877434'
p122
aS'/v/turkey-vulture/105880172'
p123
aS'/v/all-strung-out-on-crack/105973968'
p124
aS'/v/thumbelina/106476834'
p125
aS'/v/the-conch/105883594'
p126
aS'/v/the-beast/105886505'
p127
aS'/v/black-slabbath/105881704'
p128
aS'/v/cranium-crack/107118108'
p129
aS'/v/big-n-tasty/107088186'
p130
aS'/v/himalayback/107118101'
p131
aS'/v/tasting-time/107089013'
p132
aS'/v/base-camp/107099358'
p133
aS'/v/ka-pow/107088160'
p134
aS'/v/eyes-without-a-face/107531638'
p135
aS'/v/split-her/108058338'
p136
aS'/v/indecent-exposure/108116209'
p137
aS'/v/dancing-with-myself/106020666'
p138
aS'/v/cross-country/106054459'
p139
aS'/v/gremlin/106052846'
p140
aS'/v/sundrops/106054657'
p141
aS'/v/red-hooks-for-red-eyes/106371737'
p142
aS'/v/j-face/106371758'
p143
aS'/v/goats-milk/106371747'
p144
aS'/v/black-sheep/106932661'
p145
aS'/v/straight-outta-ge/106054644'
p146
aS'/v/sylvester-sidewalk/106054668'
p147
aS'/v/el-fishador/106131700'
p148
aS'/v/1-8-7/106131704'
p149
aS'/v/violet-sanctuary/107073705'
p150
aS'/v/greatful-deadpoint/107073719'
p151
aS'/v/pearl-jammin/107114080'
p152
aS'/v/half-a-full-monte/107114096'
p153
aS'/v/monster-baiter/107474601'
p154
aS'/v/jawbone/106137166'
p155
aS'/v/porcupining-away/107292240'
p156
aS'/v/lost-ninja/106138396'
p157
aS'/v/pakistani-route/106138388'
p158
aS'/v/black-sheets-of-rain/106642398'
p159
aS'/v/land-speed-record/106604014'
p160
aS'/v/husker-dont/107960054'
p161
aS'/v/eye-of-the-tiger/106825343'
p162
aS'/v/candy-apple-gray/106642389'
p163
aS'/v/cougars-pupil/106825333'
p164
aS'/v/under-the-gun/106286772'
p165
aS'/v/astro-glide/107291188'
p166
aS'/v/astro-pop/106401359'
p167
aS'/v/bugs-bunny/106460410'
p168
aS'/v/jack-rabbit/106460430'
p169
aS'/v/rabbits-foot/106464123'
p170
aS'/v/suffering-succutash-/106460423'
p171
aS'/v/roger-rabbit/106460403'
p172
aS'/v/got-a-habit-like-a-rabbit/108082183'
p173
aS'/v/playboy-bunny/108082878'
p174
aS'/v/corn-route/106478626'
p175
aS'/v/july-4th/106478631'
p176
aS'/v/simply-ravishing/107301425'
p177
aS'/v/the-euphamiah-beresford-memorial/107113155'
p178
aS'/v/rude-awakening/107301442'
p179
aS'/v/sink-it-and-wink-it/108670528'
p180
aS'/v/shes-only-17/107960375'
p181
aS'/v/rebel-yell/107896330'
p182
aS'/v/crimptonight/108019657'
p183
aS'/v/panama/107896340'
p184
aS'/v/once-bitten-twice-shy/107968316'
p185
aS'/v/the-sundance-/106886941'
p186
aS'/v/alberts-arete/106882218'
p187
aS'/v/sammy-sosa/107119823'
p188
aS'/v/petes-wicked-route/107120137'
p189
aS'/v/the-roof/107120228'
p190
aS'/v/tko/107632322'
p191
aS'/v/witchnose-arete/107386026'
p192
aS'/v/electric-sex/107276656'
p193
aS'/v/donkey-punch/107632392'
p194
aS'/v/barney-rubble/107292463'
p195
aS'/v/bamm-bamm/107422535'
p196
aS'/v/the-klondyke/108474326'
p197
aS'/v/frosted-flake/108868546'
p198
aS'/v/shoulda-nona-better/109412863'
p199
aS'/v/pular-express/108430153'
p200
aS'/v/ya-bud/108873104'
p201
aS'/v/reaching-the-melting-point/108429694'
p202
aS'/v/black-betty/106709530'
p203
aS'/v/black-jack-ruby/106709506'
p204
aS'/v/whao/106709517'
p205
aS'/v/bam-a-lam/106709536'
p206
aS'/v/princess-i-wanna-leaha/107229298'
p207
aS'/v/skywalker/107229309'
p208
aS'/v/black-rainbow/107229334'
p209
aS'/v/mister-fister/107677843'
p210
aS'/v/breast-pump/107233867'
p211
aS'/v/concracktion/107233912'
p212
aS'/v/power-of-the-darkside/107313823'
p213
aS'/v/passover/107716886'
p214
aS'/v/death-star/110619294'
p215
aS'/v/gabba-the-nut/107716938'
p216
aS'/v/tough-love/107716958'
p217
aS'/v/arsenic-arete/108612798'
p218
aS'/v/dead-mans-hand/108612855'
p219
aS'/v/polypro-bo/107286638'
p220
aS'/v/oh-that-smell/108202107'
p221
aS'/v/speedstick/108202114'
p222
aS'/v/tubular/107220838'
p223
aS'/v/sweet/108202093'
p224
aS'/v/centaur/107270397'
p225
aS'/v/cyclops/108212308'
p226
aS'/v/badgering-the-witness-aka-the-drilled-sergeant/106949735'
p227
aS'/v/court-chester/109387382'
p228
aS'/v/the-juvenile-/107220802'
p229
aS'/v/executioner-/108198881'
p230
aS'/v/legal-eagle/109444131'
p231
aS'/v/absence-of-faith/109444241'
p232
aS'/v/doorf/106946197'
p233
aS'/v/slim-shady-pillar-original-route/107739754'
p234
aS'/v/marshall-mantels-aka-extended-play/107739776'
p235
aS'/v/the-gift/108135529'
p236
aS'/v/pda/108268175'
p237
aS'/v/norms-route/108135568'
p238
aS'/v/around-the-horn/107748638'
p239
aS'/v/pinch-hitter/107748599'
p240
aS'/v/kim-gnardashian/107591730'
p241
aS'/v/the-roach/107696956'
p242
aS'/v/twist-one-up/107559669'
p243
aS'/v/jessica-crimpson/107591758'
p244
aS'/v/patina-aguilera/107612405'
p245
aS'/v/mary-jane/107580525'
p246
aS'/v/hippie-grenade/107569579'
p247
aS'/v/laughing-grass/107569546'
p248
aS'/v/i-think-im-going-to-hurle/105715037'
p249
aS'/v/kevins-influences/105715058'
p250
aS'/v/watch-for-the-bees/105939195'
p251
aS'/v/darth-cracker/107328730'
p252
aS'/v/seitch/107316201'
p253
aS'/v/gails-folly/106702573'
p254
aS'/v/cemetery-gates/106707425'
p255
aS'/v/glimmer/106702567'
p256
aS'/v/stepping-out/106702790'
p257
aS'/v/my-girl/106702782'
p258
aS'/v/garden-path/106712011'
p259
aS'/v/henry-aaron/106713267'
p260
aS'/v/the-bitch/106713286'
p261
aS'/v/the-scream/106713273'
p262
aS'/v/the-son-of-a-bitch/106713522'
p263
aS'/v/wounded-noggin/106726961'
p264
aS'/v/wounded-pain/106726957'
p265
aS'/v/r11---sweet-deception/105948528'
p266
aS'/v/r4---frigging-the-nubbin/105947872'
p267
aS'/v/r6---welcome-to-the-gash/105947883'
p268
aS'/v/spire-1-reppy-variation/105715226'
p269
aS'/v/spire-one-east-chimney-/106501876'
p270
aS'/v/east-chimney-variation/105714731'
p271
aS'/v/superstition/105715622'
p272
aS'/v/international-chimney/105714770'
p273
aS'/v/cats-meow/107684661'
p274
aS'/v/sprire-four/105714947'
p275
aS'/v/west-gruesome/106667121'
p276
aS'/v/south-tower-conn-route/105715661'
p277
aS'/v/hang-a-right-at-fourth-avenue/105714932'
p278
aS'/v/north-crack/105715025'
p279
aS'/v/east-face/105715022'
p280
aS'/v/jan-and-jane-route/105937582'
p281
aS'/v/eyetooth/105715232'
p282
aS'/v/gods-own-drunk/105715235'
p283
aS'/v/yellow-wall/105715535'
p284
aS'/v/kamps-route/107619411'
p285
aS'/v/tagua/108052987'
p286
aS'/v/hitching-post/105714803'
p287
aS'/v/the-dog-and-pony-show/106053345'
p288
aS'/v/doody-direct/105714809'
p289
aS'/v/needles-eye/105714959'
p290
aS'/v/threading-the-needle/106053351'
p291
aS'/v/unnamed-fenton-route/105845936'
p292
aS'/v/the-thimble-backside/106491536'
p293
aS'/v/standard-route/105715247'
p294
aS'/v/just-doing-our-thing/105715286'
p295
aS'/v/goldline/105715313'
p296
aS'/v/moonlight-rib/105715469'
p297
aS'/v/kamps-crack/105845930'
p298
aS'/v/every-which-way-but-loose/107475319'
p299
aS'/v/buck-shot-eyes-and-a-purple-heart/105715655'
p300
aS'/v/summer-lovin/106197483'
p301
aS'/v/patience/105714752'
p302
aS'/v/cerberus/105714761'
p303
aS'/v/north-face/105714773'
p304
aS'/v/conn-route/105715349'
p305
aS'/v/quartz-jester/105714824'
p306
aS'/v/regular-route/105960470'
p307
aS'/v/on-little-cat-feet/105714884'
p308
aS'/v/loss-of-sensation/105714869'
p309
aS'/v/conn-route/105715283'
p310
aS'/v/tent-peg/105714968'
p311
aS'/v/standard-route/105715238'
p312
aS'/v/dairy-queen/105715589'
p313
aS'/v/off-with-their-heads/105715592'
p314
aS'/v/moby-dick-standard-routes/106502041'
p315
aS'/v/nantucket-sleighride/105715664'
p316
aS'/v/end-pin/105845963'
p317
aS'/v/totem-pole/105977887'
p318
aS'/v/barber-route/105979485'
p319
aS'/v/tee-the-ball/106057739'
p320
aS'/v/cleveland-route/106072110'
p321
aS'/v/dakota-illinois/106501501'
p322
aS'/v/falcon/106543133'
p323
aS'/v/anchors-away/106784349'
p324
aS'/v/conn-route/106037118'
p325
aS'/v/conn-route/106037151'
p326
aS'/v/mark-and-tims-excellent-adventure-in-the-land-of-the-leberlopers/105881475'
p327
aS'/v/darth-vader/106491577'
p328
aS'/v/dancing-in-the-moonlight/106491571'
p329
aS'/v/saturn/106491564'
p330
aS'/v/pluto/105991246'
p331
aS'/v/jupiter/106312374'
p332
aS'/v/lunatic/105991206'
p333
aS'/v/icarus/105991234'
p334
aS'/v/gobs-of-knobs/107141385'
p335
aS'/v/rocket-man/106312382'
p336
aS'/v/wave-runner/106312392'
p337
aS'/v/kevizan/107711508'
p338
aS'/v/wiessner-chimney/105714725'
p339
aS'/v/lander-turkey-shoot/105714950'
p340
aS'/v/no-need-to-be-chicken/108253551'
p341
aS'/v/retable-route/107780458'
p342
aS'/v/kamps-crack-classic-crack/105714842'
p343
aS'/v/kateys-route/105949680'
p344
aS'/v/other-trucker-favorites/107781750'
p345
aS'/v/cold-feat/108281779'
p346
aS'/v/hardrocker/105715103'
p347
aS'/v/rockin-harder/105715598'
p348
aS'/v/the-rustlers/106865694'
p349
aS'/v/two-year-plan/107546669'
p350
aS'/v/conn-diagonal/105714734'
p351
aS'/v/west-buttress/107517307'
p352
aS'/v/nick-of-time/105958740'
p353
aS'/v/jugs/105958753'
p354
aS'/v/rain-man/107755047'
p355
aS'/v/chockstone-pinnacle/106500976'
p356
aS'/v/northwest-crack/105714938'
p357
aS'/v/hairy-horn/106500899'
p358
aS'/v/wild-rib/105714872'
p359
aS'/v/better-than-pool-and-pie/105714887'
p360
aS'/v/evarete/105715277'
p361
aS'/v/california-boys/106693182'
p362
aS'/v/pieces-of-eight/105715271'
p363
aS'/v/all-that-glitters-is-gold-aka-for-a-snickers/105715274'
p364
aS'/v/inner-course/105715451'
p365
aS'/v/foreplay/105819729'
p366
aS'/v/birth-control/105819744'
p367
aS'/v/nutcracker-suite/105819735'
p368
aS'/v/creeping-senility/105715454'
p369
aS'/v/aging-gracefully/105715457'
p370
aS'/v/gericrawl/105819964'
p371
aS'/v/goldstones-riddle/105825447'
p372
aS'/v/sundogs/105715619'
p373
aS'/v/missing-arch/105819755'
p374
aS'/v/vertigo/105911379'
p375
aS'/v/one-epic-leads-to-another/105946206'
p376
aS'/v/harbinger/106112202'
p377
aS'/v/chedaryl/107527794'
p378
aS'/v/sex-never-did-this-to-my-hands/107810730'
p379
aS'/v/fenton-route/107414631'
p380
aS'/v/forgotten-roots/108228835'
p381
aS'/v/quickbeam/105714893'
p382
aS'/v/enting/105714896'
p383
aS'/v/hrum-hroom/105714797'
p384
aS'/v/guardian/105714923'
p385
aS'/v/goldberry-lane/105714827'
p386
aS'/v/shelob/105715244'
p387
aS'/v/three-rings-for-the-elven-kings/105715667'
p388
aS'/v/of-quartz-it-goes/106538513'
p389
aS'/v/bard/107775088'
p390
aS'/v/left-wing-of-smaug/107775061'
p391
aS'/v/there-and-back-again/110424981'
p392
aS'/v/fool-of-a-took/107899687'
p393
aS'/v/thrain/107769772'
p394
aS'/v/thror/107769799'
p395
aS'/v/ghostwriter/108185924'
p396
aS'/v/knob-goblin/108185848'
p397
aS'/v/an-unexpected-journey/108212394'
p398
aS'/v/master-of-rack/108244285'
p399
aS'/v/the-outer-shadow-aka-morannon/108244936'
p400
aS'/v/waste-knot-/108244256'
p401
aS'/v/trail-of-teeth-/109358735'
p402
aS'/v/conn-route/105714962'
p403
aS'/v/four-little-fishies/105714929'
p404
aS'/v/leaning-jowler/105715241'
p405
aS'/v/over-exposure/105714911'
p406
aS'/v/cowboy-jazz/106029815'
p407
aS'/v/just-another-pretty-face/107641826'
p408
aS'/v/aggressive-tendoncies/105801793'
p409
aS'/v/surging-wave/108771411'
p410
aS'/v/spilling-waves/108771428'
p411
aS'/v/waves/105714728'
p412
aS'/v/tsunami/105715787'
p413
aS'/v/all-tuckered-out/105715115'
p414
aS'/v/humpbacks-in-love/105991355'
p415
aS'/v/tuck-and-roll/105714956'
p416
aS'/v/nutra-sweet/106123689'
p417
aS'/v/lead-fillings/105715361'
p418
aS'/v/nitrous-rockcide/105715682'
p419
aS'/v/solitaire/105714740'
p420
aS'/v/bolts-for-bob/105714737'
p421
aS'/v/bushwhacker/106245532'
p422
aS'/v/pelicans-dyke/105715559'
p423
aS'/v/full-speed-ahead/105714863'
p424
aS'/v/gang-plank/106465356'
p425
aS'/v/putt-putt-toot-toot/105714866'
p426
aS'/v/damn-the-torpedoes/105714860'
p427
aS'/v/boxcars-and-airplanes/105714767'
p428
aS'/v/way-cool-junior/105714833'
p429
aS'/v/old-number-8/105714836'
p430
aS'/v/forty-something/105715697'
p431
aS'/v/skin-to-win/105714818'
p432
aS'/v/second-hand-rose-arete/105714839'
p433
aS'/v/wasp-center-variation-start/106049635'
p434
aS'/v/the-pollinator/106053031'
p435
aS'/v/anaphylactic-shock/105881021'
p436
aS'/v/mr-critical/105881013'
p437
aS'/v/beetle-juice/105911905'
p438
aS'/v/lonesome-cowboy/105714998'
p439
aS'/v/butterfly/105911911'
p440
aS'/v/x-marks-the-spot/106668170'
p441
aS'/v/ankles-away/105714845'
p442
aS'/v/sharks-breath/105714917'
p443
aS'/v/shark-bait/105714914'
p444
aS'/v/shark-attack/108667053'
p445
aS'/v/critical-view/105715007'
p446
aS'/v/dykes-next-door/105715016'
p447
aS'/v/stormy-night/105715031'
p448
aS'/v/tranquil-evening/105715034'
p449
aS'/v/misty-morning/105715052'
p450
aS'/v/shady-proposition-/108089716'
p451
aS'/v/life-vest-made-of-lead/105715709'
p452
aS'/v/turtle/105715712'
p453
aS'/v/dirty-earnie/105715721'
p454
aS'/v/not-too-steep-for-my-lichen/105715724'
p455
aS'/v/the-slanting-crack/107764562'
p456
aS'/v/bull-headed/105715715'
p457
aS'/v/north-crack/106085457'
p458
aS'/v/boylesque/106085319'
p459
aS'/v/ladies-in-love-aka-lesbian-lovers/106085301'
p460
aS'/v/rest-and-relaxation/107645674'
p461
aS'/v/pigskin/105714758'
p462
aS'/v/foreskin/106455666'
p463
aS'/v/goat-skin/105715439'
p464
aS'/v/blue-mascara/105807774'
p465
aS'/v/lean-years/105714755'
p466
aS'/v/pop-you-up/105931946'
p467
aS'/v/the-great-chimney/105715580'
p468
aS'/v/valdez-overhang/105714995'
p469
aS'/v/baba-cool/105714854'
p470
aS'/v/meat-is-murder/105715571'
p471
aS'/v/twelve-white-sticks/108337497'
p472
aS'/v/unnamed-59/105715562'
p473
aS'/v/wisconson-beef/105715565'
p474
aS'/v/beyond-beauty/108113627'
p475
aS'/v/unknown-57/105715406'
p476
aS'/v/buddha-boys/108281780'
p477
aS'/v/hail-betty/105715397'
p478
aS'/v/broken-beliefs/108126846'
p479
aS'/v/burley-buttress/108126873'
p480
aS'/v/elephant-with-yellow-bandanas/105715403'
p481
aS'/v/existential-angst/105715109'
p482
aS'/v/babob/105715400'
p483
aS'/v/evergreen/105820050'
p484
aS'/v/emergency-snow-route/105902187'
p485
aS'/v/fintastic/106467636'
p486
aS'/v/just-jugs/106467605'
p487
aS'/v/bb-buddha-boys/106467684'
p488
aS'/v/slap-happy/106467695'
p489
aS'/v/slang/106942558'
p490
aS'/v/static-cling/108771010'
p491
aS'/v/solo-system/105714746'
p492
aS'/v/weird-water/105714749'
p493
aS'/v/star-dancer/105714743'
p494
aS'/v/make-believe/106668111'
p495
aS'/v/skywalker/105715679'
p496
aS'/v/crystal-shard/105715730'
p497
aS'/v/dont-stahl/105951178'
p498
aS'/v/moonstone/106741968'
p499
aS'/v/jupiter-fly-by/106830968'
p500
aS'/v/rum-and-coke-/106668093'
p501
aS'/v/deja-vu-prophecy/105715013'
p502
aS'/v/lightning-never-strikes-twice/106047271'
p503
aS'/v/gossamer/105714776'
p504
aS'/v/broken-window/105714785'
p505
aS'/v/kodah/106668148'
p506
aS'/v/dark-tower/107786624'
p507
aS'/v/alligators-all-around/108303966'
p508
aS'/v/creature-comforts/105853680'
p509
aS'/v/side-arm/105715676'
p510
aS'/v/creature-of-habit/105853724'
p511
aS'/v/little-gremlins/107694111'
p512
aS'/v/pointy-little-devil/106668127'
p513
aS'/v/going-down-to-harlem-with-a-turd-in-my-shorts/106668132'
p514
aS'/v/skid-marks/108200721'
p515
aS'/v/too-easy-for-hard-men/108369892'
p516
aS'/v/conn-route/105714779'
p517
aS'/v/impeachable-offense/105715694'
p518
aS'/v/the-engagement/108084203'
p519
aS'/v/garfield-goes-to-washington/105714800'
p520
aS'/v/garfields-forgiven-affair/106424466'
p521
aS'/v/political-prowness/105714935'
p522
aS'/v/wife-sentence/106299424'
p523
aS'/v/smear-campaign/107187962'
p524
aS'/v/chemical-wire/105715649'
p525
aS'/v/royal-flush/108338025'
p526
aS'/v/read-my-clips/108226321'
p527
aS'/v/aces-high/108911085'
p528
aS'/v/rogaine-with-minoxidil/106476086'
p529
aS'/v/comb-over/105715745'
p530
aS'/v/curly/105715742'
p531
aS'/v/sw-summit-route/106849591'
p532
aS'/v/dont-shoot-im-only-the-belayer/105715352'
p533
aS'/v/stems-from-controversy/105715358'
p534
aS'/v/the-bein-crack/108305145'
p535
aS'/v/podnme/106835464'
p536
aS'/v/forgotten-love/106286854'
p537
aS'/v/big-ones-need-love-too/106286823'
p538
aS'/v/may-december-romance/106286849'
p539
aS'/v/love-above/106286798'
p540
aS'/v/recycled-love/106286831'
p541
aS'/v/oltons-shoulder-1936-original-route-/106939422'
p542
aS'/v/fun-bags/108036270'
p543
aS'/v/sioux-pride/108368776'
p544
aS'/v/trench-foot-ns/106302432'
p545
aS'/v/fortune-cookie/106544738'
p546
aS'/v/mock-duck-rs/106302512'
p547
aS'/v/hucky-sucky-510-bucky/108301230'
p548
aS'/v/jungle-rot-ns/106302437'
p549
aS'/v/charlie-chang-rs/106302523'
p550
aS'/v/blue-lukegoon-ns/106302398'
p551
aS'/v/going-commie/108255797'
p552
aS'/v/khmer-rouge-ns/106302406'
p553
aS'/v/mobile-gorilla-force-ns/106302449'
p554
aS'/v/slicky-boy-ns/106302458'
p555
aS'/v/hot-cock/106286038'
p556
aS'/v/love-you-long-time/106286045'
p557
aS'/v/mogo-chaji/106300140'
p558
aS'/v/map-of-japan/106300126'
p559
aS'/v/man-china/106300088'
p560
aS'/v/bucket-head/106286051'
p561
aS'/v/me-so-horny/106286054'
p562
aS'/v/bluecelee/106300123'
p563
aS'/v/steep--cheap/106300403'
p564
aS'/v/foot-fist-way/106300396'
p565
aS'/v/american-life/107933294'
p566
a.