(lp0
S'/v/the-pollinator/105757681'
p1
aS'/v/lolanator/106532142'
p2
aS'/v/climb-a-dime-a-ding-dang/106191134'
p3
aS'/v/pretty-hate-machine/105754489'
p4
aS'/v/black-caesar/105757696'
p5
aS'/v/smarmacus-maximus/106027847'
p6
aS'/v/los-hermanos-de-la-penitente-de-los-matador-pantalones/105753919'
p7
aS'/v/slagissimo/105754312'
p8
aS'/v/debaser/105760911'
p9
aS'/v/squeal-like-a-pig/105763770'
p10
aS'/v/vitamin-d/106453199'
p11
aS'/v/pump-o-rama/105753574'
p12
aS'/v/das-fruit-machine/106262854'
p13
aS'/v/rendezspew/105754330'
p14
aS'/v/sprayathon/105753589'
p15
aS'/v/the-path/105754165'
p16
aS'/v/the-colinator/105858682'
p17
aS'/v/popular-demand/105753952'
p18
aS'/v/community-service/105753379'
p19
aS'/v/capuccino/106519447'
p20
aS'/v/ruckus/105753286'
p21
aS'/v/gun-shy/105753631'
p22
aS'/v/guilt-parade/105753829'
p23
aS'/v/espresso/105757228'
p24
aS'/v/lady-luck/105758566'
p25
aS'/v/automatic-leg-spreader/108433846'
p26
aS'/v/never-believe/105753193'
p27
aS'/v/slacker/105757000'
p28
aS'/v/the-beast/105753277'
p29
aS'/v/vision-thing/105753430'
p30
aS'/v/thieves/105754303'
p31
aS'/v/bottom-feeder/105762201'
p32
aS'/v/rehabilitator/105753832'
p33
aS'/v/fist-full-of-dollars/105753838'
p34
aS'/v/defenseless-betty/105753295'
p35
aS'/v/irie-meditation/106825185'
p36
aS'/v/twisted/106169089'
p37
aS'/v/hang-em-high/105753289'
p38
aS'/v/hang-em-higher/105761259'
p39
aS'/v/mouse-trap/106008530'
p40
aS'/v/the-eighth-day-aka-mc-900-ft-jesus/105753841'
p41
aS'/v/apocalypse-91/105753550'
p42
aS'/v/simply-read/105753307'
p43
aS'/v/living-in-fear/105753313'
p44
aS'/v/first-steps/108155879'
p45
aS'/v/supre-guide/106243615'
p46
aS'/v/nessun-dorma/106171769'
p47
aS'/v/when-the-levee-breaks/107188916'
p48
aS'/v/pellet-gun/105753754'
p49
aS'/v/bloody-corner/105759861'
p50
aS'/v/primer/105753757'
p51
aS'/v/the-rolling-log/106243634'
p52
aS'/v/choss-family-robinson/105753343'
p53
aS'/v/firearms/105753760'
p54
aS'/v/bolt-action/105753763'
p55
aS'/v/red-dawn/105761058'
p56
aS'/v/head-full-of-lead/105762459'
p57
aS'/v/kielbasa-run/106359532'
p58
aS'/v/prime-evil/106479781'
p59
aS'/v/prime-the-pump/106479794'
p60
aS'/v/cap-gun-aka-dave-bingham-route-aka-return-to-sender/105753856'
p61
aS'/v/pinch-fest/105753328'
p62
aS'/v/street-knowledge/105753595'
p63
aS'/v/loose-cannon/106429971'
p64
aS'/v/noble-wife/106487416'
p65
aS'/v/the-promise/105753862'
p66
aS'/v/call-the-cops/105760215'
p67
aS'/v/extended-family/106024248'
p68
aS'/v/in-your-face/105753331'
p69
aS'/v/shibumi/105754309'
p70
aS'/v/beer-run/105753859'
p71
aS'/v/waiting-for-21/106313732'
p72
aS'/v/dont-point-that-thing-at-me-head-full-of-lead-extension/105996213'
p73
aS'/v/doctors-orders/108159470'
p74
aS'/v/rehab/108159474'
p75
aS'/v/mariscos-lambada-aka-gook-a-nook/105757219'
p76
aS'/v/a-stirring-of-air/105757237'
p77
aS'/v/duck-a-day/108193179'
p78
aS'/v/straight-man/107856027'
p79
aS'/v/air-patrol/108193184'
p80
aS'/v/peaceful-revolution/108252810'
p81
aS'/v/no-risk-no-fin/106532545'
p82
aS'/v/brenna/106002745'
p83
aS'/v/wedding-streak/107856016'
p84
aS'/v/winters-end/108159481'
p85
aS'/v/suck-it-and-see/108327782'
p86
aS'/v/lever-action-not-downdraft/105985196'
p87
aS'/v/pistola/106515299'
p88
aS'/v/durban-poison/105757039'
p89
aS'/v/fluff-boy/105753316'
p90
aS'/v/dry-doctor-aka-buzzworm/105753853'
p91
aS'/v/bulges-of-munge/106002063'
p92
aS'/v/80-feet-of-meat/105753391'
p93
aS'/v/cold-cuts/105753940'
p94
aS'/v/jail-bait/105997439'
p95
aS'/v/next-try/106002079'
p96
aS'/v/sausage-boy-aka-sams-route/109318244'
p97
aS'/v/sex-machine/105754429'
p98
aS'/v/steroid-power/106002068'
p99
aS'/v/drunk-lover/106167548'
p100
aS'/v/crime-and-punishment/105753397'
p101
aS'/v/cardinal-sin/105753400'
p102
aS'/v/james-browns-wild-ride/105754432'
p103
aS'/v/czech-mate/106002087'
p104
aS'/v/gun-show/107606649'
p105
aS'/v/lost-and-found/106002073'
p106
aS'/v/dirt/105757678'
p107
aS'/v/carnivore/109137422'
p108
aS'/v/le-specimen/105753370'
p109
aS'/v/blocky-horror-picture-show/106131312'
p110
aS'/v/purple-and-green/105753676'
p111
aS'/v/scum-mainfesto/105762498'
p112
aS'/v/ride-the-snake/106575471'
p113
aS'/v/just-another-514-aka-courtesy-spit/105759735'
p114
aS'/v/fullphilment/106287380'
p115
aS'/v/quasimodo/105764874'
p116
aS'/v/philanthropy/106287360'
p117
aS'/v/the-dancing-pickle/107245561'
p118
aS'/v/night-vision/107611346'
p119
aS'/v/land-phil/107783543'
p120
aS'/v/easy-skankin/105753376'
p121
aS'/v/sing-it-in-russian/105762612'
p122
aS'/v/girly-not-burly/106169095'
p123
aS'/v/movement-of-fear/105753889'
p124
aS'/v/i-am-not-a-philistine/105763185'
p125
aS'/v/philology/106244530'
p126
aS'/v/poetic-justice/105753496'
p127
aS'/v/philibuster/105753742'
p128
aS'/v/phil-attio-the-stumblebum/105758017'
p129
aS'/v/bong-30/107248288'
p130
aS'/v/phil-of-all-evil/105758886'
p131
aS'/v/the-anti-phil/105753469'
p132
aS'/v/eurotrash/105753739'
p133
aS'/v/guns-n-posers/105754516'
p134
aS'/v/ricochet/105753373'
p135
aS'/v/mr-sniff/107799177'
p136
aS'/v/puppy-love/105753943'
p137
aS'/v/quick-draws/105754519'
p138
aS'/v/fully-automatic/105760968'
p139
aS'/v/lung-biscuit/105759786'
p140
aS'/v/kill-for-a-thrill/105760971'
p141
aS'/v/bite-the-bullet/105755296'
p142
aS'/v/rickles/106193308'
p143
aS'/v/martin--lewis/106779735'
p144
aS'/v/carlin/106231707'
p145
aS'/v/pryor/106248473'
p146
aS'/v/sellers/106252682'
p147
aS'/v/costello/106248461'
p148
aS'/v/borat/107207724'
p149
aS'/v/woody/109154673'
p150
aS'/v/the-bumble-bee/106170113'
p151
aS'/v/continental-call/105762681'
p152
aS'/v/wake-up-call/105762633'
p153
aS'/v/continental-breakfast/105975812'
p154
aS'/v/mels-diner/106080153'
p155
aS'/v/road-to-nowhere/106170122'
p156
aS'/v/good-moanin/105968335'
p157
aS'/v/leather-queen/105942647'
p158
aS'/v/smell-the-coffee/106170117'
p159
aS'/v/plastic-prince/105759801'
p160
aS'/v/local-talent/106026975'
p161
aS'/v/bloodhound/107284179'
p162
aS'/v/do-the-mashed-potato-aka-acquitted/105757246'
p163
aS'/v/spuds-in-space/105757240'
p164
aS'/v/hot-potato/105757243'
p165
aS'/v/vortex-aka-fat-slags/106027239'
p166
aS'/v/small-fry/107235387'
p167
aS'/v/merry-maids/105753394'
p168
aS'/v/monster-magnet/106015364'
p169
aS'/v/chud/105759492'
p170
aS'/v/rachels-route/107784443'
p171
aS'/v/irish-blood/106852720'
p172
aS'/v/lovin-you-is-a-dirty-job/109412189'
p173
aS'/v/deutsches-blut/108290565'
p174
aS'/v/feline/105756046'
p175
aS'/v/ledged-assault/106184703'
p176
aS'/v/pile-driver/105753502'
p177
aS'/v/forgotten-years/106007327'
p178
aS'/v/pygmy-mastodon-boner/105749968'
p179
aS'/v/daydream-nation/105762495'
p180
aS'/v/skull-fuck/105812429'
p181
aS'/v/the-cracked-open-sky/105758560'
p182
aS'/v/mr-cranky-pants/107231754'
p183
aS'/v/z-man/107231744'
p184
aS'/v/pms/105754246'
p185
aS'/v/pmt/105757699'
p186
aS'/v/ivory-tower/105760131'
p187
aS'/v/family-unit/105753826'
p188
aS'/v/fossil-family/105760344'
p189
aS'/v/drunken-monkey/105753463'
p190
aS'/v/kingfisher/105754249'
p191
aS'/v/fringe-dweller/105754222'
p192
aS'/v/motley-cruise/105753934'
p193
aS'/v/school-of-rk/109590615'
p194
aS'/v/choss-temple-pilots/105753628'
p195
aS'/v/sigue-sigue-sputnik/106204197'
p196
aS'/v/hurl-jam/105753667'
p197
aS'/v/baby-brothers/108233874'
p198
aS'/v/love-and-rockets/105753673'
p199
aS'/v/the-brothers-carrutherzov/105754126'
p200
aS'/v/der-stihl/105753634'
p201
aS'/v/squeal-to-stihl/107200833'
p202
aS'/v/huge/105756916'
p203
aS'/v/roadside-prophet/105758452'
p204
aS'/v/sexy-beast/107555397'
p205
aS'/v/cryptic-egyptian/105754168'
p206
aS'/v/zulu/105754252'
p207
aS'/v/tijuana-crack-whore/106002096'
p208
aS'/v/rumor-has-it/105985455'
p209
aS'/v/cool-world/106002121'
p210
aS'/v/left-el-sapper/106002105'
p211
aS'/v/that-one-climb/106287247'
p212
aS'/v/peleliu/108140099'
p213
aS'/v/right-el-sapper/106002114'
p214
aS'/v/handy-boy/105751621'
p215
aS'/v/the-butterfly-effect/108266980'
p216
aS'/v/hand-me-the-canteen-boy/105754114'
p217
aS'/v/cantina-boy/105754111'
p218
aS'/v/the-kiss-that-stings/105760947'
p219
aS'/v/music-for-the-dead/105757609'
p220
aS'/v/stepping-stone/106844744'
p221
aS'/v/jeffs-route/106170100'
p222
aS'/v/canine/107252963'
p223
aS'/v/master-chief/107247628'
p224
aS'/v/tiny-two-step/107783559'
p225
aS'/v/stem-o-rama/107247639'
p226
aS'/v/brown-chicken/106170094'
p227
aS'/v/mutt-lange/106212557'
p228
aS'/v/t-mac/106193029'
p229
aS'/v/my-guitar-wants-to-kill-your-momma/106231668'
p230
aS'/v/sheehan/106243220'
p231
aS'/v/malmsteen/106184000'
p232
aS'/v/guitar-hero/109095160'
p233
aS'/v/vai/106194399'
p234
aS'/v/satch/106252688'
p235
aS'/v/vikings/106252669'
p236
aS'/v/mr-scary/106193385'
p237
aS'/v/blackmore/106252655'
p238
aS'/v/hazed--infused/106184078'
p239
aS'/v/arioso/106243671'
p240
aS'/v/space-for-the-papa/106427232'
p241
aS'/v/sleestak-love/106260335'
p242
aS'/v/the-bride-of-frankenstein/106256726'
p243
aS'/v/marry-me/107268699'
p244
aS'/v/exodus/106878189'
p245
aS'/v/the-enlightened-path/106878183'
p246
aS'/v/genesis/106882881'
p247
aS'/v/conception/106901934'
p248
aS'/v/dr-strangelove/107235965'
p249
aS'/v/clockwork-orange/107235945'
p250
aS'/v/redmond-barry/108256301'
p251
aS'/v/jack-torrance/108290531'
p252
aS'/v/full-metal-jacket/108263642'
p253
aS'/v/reverend-runt/108538330'
p254
aS'/v/chevalier-de-balibari/108291249'
p255
aS'/v/lady-lyndon/107235935'
p256
aS'/v/hal-9000/107235973'
p257
aS'/v/gunnery-sergeant-hartman/107235954'
p258
aS'/v/lord-bullingdon/108538338'
p259
aS'/v/agape/108252843'
p260
aS'/v/gestational-physics/108252852'
p261
aS'/v/silent-swells/109477649'
p262
aS'/v/the-silver-surfer/105758913'
p263
aS'/v/hawaii-five-0/106734164'
p264
aS'/v/mitten-slab/105989837'
p265
a.