(lp0
S'/v/easy-street/105753280'
p1
aS'/v/let-it-vee/105751978'
p2
aS'/v/ghetto-cruiser/105752776'
p3
aS'/v/gonzo/105749041'
p4
aS'/v/v3/105749080'
p5
aS'/v/youre-ugly-and-your-mother-dresses-you-funny/105749911'
p6
aS'/v/twistoflex/106750130'
p7
aS'/v/deviant/105751696'
p8
aS'/v/highway-of-diamonds/105754963'
p9
aS'/v/auburn-lane/105751360'
p10
aS'/v/moonlight-drive/105752713'
p11
aS'/v/ichiban-arete/105764829'
p12
aS'/v/auburn-court/105759585'
p13
aS'/v/land-of-ra/105749788'
p14
aS'/v/heartbreaker-aka-never-cry-wolf/105752047'
p15
aS'/v/stargate/105757903'
p16
aS'/v/the-untitled/105758077'
p17
aS'/v/west-crack/105749992'
p18
aS'/v/east-slabs/105803031'
p19
aS'/v/west-dihedral/105749614'
p20
aS'/v/clementine/105749863'
p21
aS'/v/finger-crack/106809662'
p22
aS'/v/west-face-whales-tail/105764133'
p23
aS'/v/left-arete/105752413'
p24
aS'/v/spoof/105752353'
p25
aS'/v/jack-the-ripper/105751165'
p26
aS'/v/m/105753748'
p27
aS'/v/cest-what/105749173'
p28
aS'/v/free-speech/105758994'
p29
aS'/v/the-monument/105752086'
p30
aS'/v/uninspiring-wall/105759960'
p31
aS'/v/rush-buick/105750433'
p32
aS'/v/january-playmate/105965531'
p33
aS'/v/january-rush/106698666'
p34
aS'/v/werner-brothers-roof/106935541'
p35
aS'/v/nobodys-home/105758727'
p36
aS'/v/emergency-brake/106569088'
p37
aS'/v/brother-jug/105763734'
p38
aS'/v/self-abuse/105751252'
p39
aS'/v/the-squeamish/105763533'
p40
aS'/v/tombstone/105751162'
p41
aS'/v/die-heeda-rule/105763737'
p42
aS'/v/heart-of-gold/105750781'
p43
aS'/v/zig-zagging-jews/105761022'
p44
aS'/v/simple-simon-slab/105755185'
p45
aS'/v/northeast-arete/105757411'
p46
aS'/v/northwest-arete/105755188'
p47
aS'/v/supremacy-slab/105751405'
p48
aS'/v/west-face-supremacy-rock/105751366'
p49
aS'/v/supremacy-crack/105751363'
p50
aS'/v/the-web/105752767'
p51
aS'/v/perry-meson/105754261'
p52
aS'/v/ohmers-odyssey/105754264'
p53
aS'/v/nuts-and-volts/105754258'
p54
aS'/v/white-dwarf/105754270'
p55
aS'/v/mountaineers-route/105755191'
p56
aS'/v/future-primitive/105761121'
p57
aS'/v/gambit/105751960'
p58
aS'/v/ginseng-junkie/105754642'
p59
aS'/v/cro-magnon-aka-the-tail/105759453'
p60
aS'/v/serrated-jam-crack/105759459'
p61
aS'/v/giuoco-piano-direct/105761100'
p62
aS'/v/missing-link/105754639'
p63
aS'/v/tiger-balm-arete/105755053'
p64
aS'/v/kloof/105752326'
p65
aS'/v/sequential/105752455'
p66
aS'/v/superfly/105890522'
p67
aS'/v/good-cleavage/105755209'
p68
aS'/v/on-slot/105763833'
p69
aS'/v/rotwand-route/105760986'
p70
aS'/v/two-tone-dihedral/105760065'
p71
aS'/v/plankton-stew/105760047'
p72
aS'/v/the-bomb/105750568'
p73
aS'/v/tigger/105748681'
p74
aS'/v/boulder-direct/105749869'
p75
aS'/v/breezy/105750472'
p76
aS'/v/governors-climb-the/106712700'
p77
aS'/v/wind-ridge/105748361'
p78
aS'/v/calypso/105748391'
p79
aS'/v/recon/105760905'
p80
aS'/v/west-overhang/105751342'
p81
aS'/v/roofed-out/105755476'
p82
aS'/v/reggae/105748406'
p83
aS'/v/lemmings/105751354'
p84
aS'/v/tigger-plus/105754987'
p85
aS'/v/calypso-direct/105760206'
p86
aS'/v/-calypso-direct-start/107394194'
p87
aS'/v/left-out/105752359'
p88
aS'/v/across-the-river-from-butt-hair/105753172'
p89
aS'/v/wind-tower-slab/105754921'
p90
aS'/v/rastaman-roof/105754846'
p91
aS'/v/hard-up/105762126'
p92
aS'/v/i-did-it-my-way/105755470'
p93
aS'/v/tagger/105748379'
p94
aS'/v/the-yellow-traverse/105748427'
p95
aS'/v/futile-laments/105760920'
p96
aS'/v/the-metamorphosis/105764211'
p97
aS'/v/diffraction/105752350'
p98
aS'/v/disguise/105757939'
p99
aS'/v/kings-x/105749536'
p100
aS'/v/scotch-and-soda/105760263'
p101
aS'/v/the-lion/105751570'
p102
aS'/v/rainbow-wall/105751564'
p103
aS'/v/twilight/105757276'
p104
aS'/v/upstairs/105755263'
p105
aS'/v/heavy-weather/105755077'
p106
aS'/v/the-cruise/105755266'
p107
aS'/v/gravitys-angel/105755248'
p108
aS'/v/sunrider/105755194'
p109
aS'/v/double-cracks/105755254'
p110
aS'/v/your-basic-lieback/105749740'
p111
aS'/v/off-the-cuff/105760239'
p112
aS'/v/dihedral/105760014'
p113
aS'/v/west-crack-aka-star-wars/105749299'
p114
aS'/v/fickle-finger-of-eight/105759777'
p115
aS'/v/cornered-straight-up-variation/105749866'
p116
aS'/v/peanuts/105755239'
p117
aS'/v/wired/105755242'
p118
aS'/v/trouble-and-strife/105751249'
p119
aS'/v/lets-jet/106805688'
p120
aS'/v/blows-against-the-empire/105756925'
p121
aS'/v/forbidden-planet/105755236'
p122
aS'/v/home-free/105755251'
p123
aS'/v/scorpions/105760938'
p124
aS'/v/young-blonde-and-easy/106844218'
p125
aS'/v/just-another-girls-climb/105755299'
p126
aS'/v/the-bastille-crack/105748490'
p127
aS'/v/werk-supp/105749890'
p128
aS'/v/marie-antoinette/105764313'
p129
aS'/v/march-of-dimes/105750418'
p130
aS'/v/outer-face/105760188'
p131
aS'/v/outer-space/105748612'
p132
aS'/v/x-m/105750403'
p133
aS'/v/independent-study/105760347'
p134
aS'/v/northcutt-start/105748678'
p135
aS'/v/northwest-corner/105753265'
p136
aS'/v/wide-country/105760527'
p137
aS'/v/nexus/106898309'
p138
aS'/v/direct-north-face/105749743'
p139
aS'/v/inner-space/105753877'
p140
aS'/v/interceptor/105754171'
p141
aS'/v/saturnalia/105760563'
p142
aS'/v/the-spice-tour/105749737'
p143
aS'/v/crossfire/106247599'
p144
aS'/v/derek-tissima/105764385'
p145
aS'/v/madame-guillotine/106737985'
p146
aS'/v/hairstyles-and-attitudes/105755695'
p147
aS'/v/west-side-aka-west-chimney/105754918'
p148
aS'/v/voodoo/105748642'
p149
aS'/v/west-arete/105749038'
p150
aS'/v/breakfast-in-bed/105753310'
p151
aS'/v/out-to-lunge/105751321'
p152
aS'/v/hair-city/105748627'
p153
aS'/v/west-buttress/105748999'
p154
aS'/v/blind-faith/105748639'
p155
aS'/v/new-chautauqua/105762426'
p156
aS'/v/rain/105753211'
p157
aS'/v/neon-lights/105751282'
p158
aS'/v/west-face/105756940'
p159
aS'/v/sunset-boulevard/105756595'
p160
aS'/v/your-mother/105752083'
p161
aS'/v/pseudo-sidetrack/105757843'
p162
aS'/v/the-bulge/105748804'
p163
aS'/v/whittle-wall-the/105757279'
p164
aS'/v/original-anthill/107064159'
p165
aS'/v/pas-variation/105847846'
p166
aS'/v/redguard/105757837'
p167
aS'/v/the-whistle-stop/105757846'
p168
aS'/v/cest-la-morte/105748795'
p169
aS'/v/anthill-direct/105749035'
p170
aS'/v/the-flakes/105751144'
p171
aS'/v/shades-of-gray/105759822'
p172
aS'/v/dessert/105761307'
p173
aS'/v/semi-wild/105764397'
p174
aS'/v/blackwalk/105748801'
p175
aS'/v/backtalk/105751426'
p176
aS'/v/pilgrim/105760260'
p177
aS'/v/high-noon/105752659'
p178
aS'/v/the-vaporizer/106656391'
p179
aS'/v/cest-la-vie/105748792'
p180
aS'/v/pansee-sauvage/105753511'
p181
aS'/v/exodus/105761427'
p182
aS'/v/black-top/105752386'
p183
aS'/v/le-boomerang/105749449'
p184
aS'/v/back-in-black/105748798'
p185
aS'/v/je-taime/105763263'
p186
aS'/v/genesis/105749248'
p187
aS'/v/desdichado/105752770'
p188
aS'/v/daedalus/105749932'
p189
aS'/v/icarus/105748654'
p190
aS'/v/the-ytrid-deed/105754849'
p191
aS'/v/chockstone-chimney/105762438'
p192
aS'/v/dirty-deed/106884396'
p193
aS'/v/el100/105753046'
p194
aS'/v/phallus-in-suck-it-land/105756907'
p195
aS'/v/ruper/105748774'
p196
aS'/v/body-tremors/105753202'
p197
aS'/v/alice-in-bucketland/105762483'
p198
aS'/v/the-yellow-spur/105748657'
p199
aS'/v/rocky-raccoon/105753070'
p200
aS'/v/italian-arete/105753619'
p201
aS'/v/mickey-mouse-nailup/105755551'
p202
aS'/v/grand-giraffe/105751315'
p203
aS'/v/smoke--mirrors/105753703'
p204
aS'/v/three-old-farts-young-at-heart/105762708'
p205
aS'/v/arts-spar/105750730'
p206
aS'/v/south-face-of-tower-one/105756883'
p207
aS'/v/super-slab/105749728'
p208
aS'/v/psychosis/105753610'
p209
aS'/v/electric-aunt-jemima/105754333'
p210
aS'/v/neurosis/105762369'
p211
aS'/v/psycho-pigeon/105753322'
p212
aS'/v/vertigo/105748771'
p213
aS'/v/superspar/105748810'
p214
aS'/v/rover/105760578'
p215
aS'/v/rosy-ii---in-memory-of-layton-kor/108544330'
p216
aS'/v/parting-shot/105756112'
p217
aS'/v/roll-over-rover/105756349'
p218
aS'/v/doub-griffith/105753319'
p219
aS'/v/yellow-fellow/106022756'
p220
aS'/v/ignition/105753115'
p221
aS'/v/magic-carpet-ride/105763845'
p222
aS'/v/mellow-yellow/106331458'
p223
aS'/v/song-of-the-dodo/105748807'
p224
aS'/v/apple-strudel/105753112'
p225
aS'/v/cave-pitch/105759576'
p226
aS'/v/touch-n-go/105749032'
p227
aS'/v/t2-direct-finish/106737928'
p228
aS'/v/rosy-crucifixion/105748777'
p229
aS'/v/bolting-for-glory/105751324'
p230
aS'/v/the-serpent/105753184'
p231
aS'/v/no-lo-contendere/105753361'
p232
aS'/v/t2/105748783'
p233
aS'/v/the-diving-board/105748789'
p234
aS'/v/slow-train-coming/105758973'
p235
aS'/v/the-naked-edge/105748786'
p236
aS'/v/plastic-jesus/105750763'
p237
aS'/v/dizzy-miss-lizzy-aka-scrutiny-on-the-bounty/105763773'
p238
aS'/v/jules-verne/105757420'
p239
aS'/v/lenes-dream/105761505'
p240
aS'/v/predator/105749416'
p241
aS'/v/green-willow-wall/105755302'
p242
aS'/v/genius-loci/105750961'
p243
aS'/v/the-contest/105756157'
p244
aS'/v/le-void/106341097'
p245
aS'/v/wild-kingdom/105750748'
p246
aS'/v/rise-above-aka-mr-malcontent/105756391'
p247
aS'/v/scratch-and-sniff/105762870'
p248
aS'/v/temporary-like-achilles/105763785'
p249
aS'/v/rosy-toit/105760227'
p250
aS'/v/le-toit/105749596'
p251
aS'/v/guenese/105748780'
p252
aS'/v/clear-the-deck/105753367'
p253
aS'/v/evangeline/105763740'
p254
aS'/v/kloeberdanz/105758401'
p255
aS'/v/the-wisdom/105763806'
p256
aS'/v/hands-in-the-clouds/105749944'
p257
aS'/v/fire-and-ice-/105753109'
p258
aS'/v/clever-lever/106331418'
p259
aS'/v/downpressor-man/105759510'
p260
aS'/v/wasabe/105755632'
p261
aS'/v/scary-canary/105759996'
p262
aS'/v/psycho/105749731'
p263
aS'/v/swanson-arete/105748651'
p264
aS'/v/west-chimney/105822133'
p265
aS'/v/rewritten/105750106'
p266
aS'/v/lost-in-space/105752884'
p267
aS'/v/rebuffats-arete/108095626'
p268
aS'/v/the-hot-spur/105758919'
p269
aS'/v/green-slab-original-route/107423155'
p270
aS'/v/the-great-zot/105748648'
p271
aS'/v/the-zot-face/105760434'
p272
aS'/v/the-green-spur/105748645'
p273
aS'/v/green-slab-direct/105754933'
p274
aS'/v/sunstar/105756241'
p275
aS'/v/northumberland-crack/105764973'
p276
aS'/v/darkness-til-dawn/105750565'
p277
aS'/v/grandmothers-challenge/105748813'
p278
aS'/v/disappearing-act-aka-kryptonite/105749425'
p279
aS'/v/the-grand-course/105750751'
p280
aS'/v/silver-raven/105753868'
p281
aS'/v/vertical-smile/105754822'
p282
aS'/v/the-slimy-spoon/105752518'
p283
aS'/v/schizophrenia/105753613'
p284
aS'/v/pickpocket/105763527'
p285
aS'/v/mr-natural/105749290'
p286
aS'/v/arcane-saw/105758796'
p287
aS'/v/captain-4q-aka-santa-ana/105752656'
p288
aS'/v/the-dispensary/108425425'
p289
aS'/v/unknown-10c-aka-quadrille/105756823'
p290
aS'/v/eat-or-be-eaten-aka-super-slab-direct-aid-variation/105763428'
p291
aS'/v/suparete/105749953'
p292
aS'/v/toys-for-tots/105763266'
p293
aS'/v/breakfast-of-champions/105752716'
p294
aS'/v/super-slab-direct-start/106066032'
p295
aS'/v/captain-crunch/105752707'
p296
aS'/v/sour-cream/105756265'
p297
aS'/v/potato-chip-route-regular-route/105756037'
p298
aS'/v/ice-nine/105754657'
p299
aS'/v/knights-move/105748912'
p300
aS'/v/sm/105748918'
p301
aS'/v/bushwack-crack/105754978'
p302
aS'/v/sylvias-bush/106573347'
p303
aS'/v/purple-haze/105750514'
p304
aS'/v/fading-light/105753535'
p305
aS'/v/sirens-of-titan/105753850'
p306
aS'/v/the-bat/105754678'
p307
aS'/v/friends-in-high-places/105750517'
p308
aS'/v/born-under-punches/105753364'
p309
aS'/v/blackout/105758667'
p310
aS'/v/chockstone/105763881'
p311
aS'/v/chock-suey/105761589'
p312
aS'/v/laughing-at-the-moon/105750442'
p313
aS'/v/whiplash/105751180'
p314
aS'/v/android-tilt/105754681'
p315
aS'/v/as-we-liked-it/105753358'
p316
aS'/v/muscular-dystrophy/105751174'
p317
aS'/v/prince-of-darkness/105763989'
p318
aS'/v/jericho/105757600'
p319
aS'/v/superstone/105759303'
p320
aS'/v/cornerstone/105763290'
p321
aS'/v/a-cut-above/105755281'
p322
aS'/v/duh-dihedral/105750112'
p323
aS'/v/docs-little-brother/105762120'
p324
aS'/v/dr-michael-solar/105749746'
p325
aS'/v/working-class-hero/105753706'
p326
aS'/v/tampon/105763203'
p327
aS'/v/srinagar/105763467'
p328
aS'/v/hang-ten/106644063'
p329
aS'/v/lunar-lander/106937305'
p330
aS'/v/lunar-avenue/105751009'
p331
aS'/v/pool-of-blood/105750109'
p332
aS'/v/funeral-march/105753298'
p333
aS'/v/fine-line/105758026'
p334
aS'/v/cold-turkey/105759033'
p335
aS'/v/xanadu/105749029'
p336
aS'/v/positively-fourth-street/105749917'
p337
aS'/v/air-mail/105753253'
p338
aS'/v/milk-dreams/105759588'
p339
aS'/v/rhadamanthus/105763389'
p340
aS'/v/hand-crack-aka-white-lightning/105752560'
p341
aS'/v/zap-snack/107794440'
p342
aS'/v/zip-code/105751408'
p343
aS'/v/parallels/105753100'
p344
aS'/v/kashmir/105754660'
p345
aS'/v/tango/106024243'
p346
aS'/v/terminal-velocity/105758092'
p347
aS'/v/tanqueray/105760281'
p348
aS'/v/kubla-khan/105760572'
p349
aS'/v/bit-by-bit/105761682'
p350
aS'/v/the-formula/105753097'
p351
aS'/v/foxtrot/105753103'
p352
aS'/v/iron-pony/105762408'
p353
aS'/v/crazy-fingers/105959144'
p354
aS'/v/mesca-line/105748921'
p355
aS'/v/dandi-line/105754636'
p356
aS'/v/wind-tunnel/105761310'
p357
aS'/v/dead-letter-department/105759300'
p358
aS'/v/sooberb-lite/107068739'
p359
aS'/v/lightning-bolt-crack/105759312'
p360
aS'/v/ignominity/105748915'
p361
aS'/v/sister-morphine/105754633'
p362
aS'/v/drug-abuse/105758272'
p363
aS'/v/pygmy-pony/105758608'
p364
aS'/v/horse-doeuvre-aka-pony-express-p1-to-zip-code/106579556'
p365
aS'/v/handcracker-direct/105749599'
p366
aS'/v/chick-on-the-side/105752569'
p367
aS'/v/variation-to-mail-ridge/105753892'
p368
aS'/v/sooberb/105755290'
p369
aS'/v/mail-ridge-tower-link-up/108169496'
p370
aS'/v/muscle-and-hate/105751168'
p371
aS'/v/practice-wall/105750523'
p372
aS'/v/court-jester/105803094'
p373
aS'/v/the-side-wall/105758224'
p374
aS'/v/iron-horse/105756538'
p375
aS'/v/pony-express/105751411'
p376
aS'/v/unbroken-chain/105755149'
p377
aS'/v/barrel-of-monkeys/105755320'
p378
aS'/v/false-prophet/106352318'
p379
aS'/v/warp-drive-overload/106899240'
p380
aS'/v/practice-climb-101/106331446'
p381
aS'/v/reckoning/105755326'
p382
aS'/v/washington-irving/105749839'
p383
aS'/v/long-john-wall/105748924'
p384
aS'/v/sunshine-wall/105754219'
p385
aS'/v/chianti/105749296'
p386
aS'/v/break-on-through-to-chianti/107297934'
p387
aS'/v/the-unsaid/105748951'
p388
aS'/v/next-to-nearly/105754906'
p389
aS'/v/clear-a-sill/105759309'
p390
aS'/v/strawberry-shortcut/105753514'
p391
aS'/v/break-on-through/105754714'
p392
aS'/v/rock-for-climbing-routes-to/105761892'
p393
aS'/v/cruisin-for-burgers/105753262'
p394
aS'/v/varieties-of-religious-experience/105758763'
p395
aS'/v/sleepytime/105806655'
p396
aS'/v/verschneidung-dihedral/105748936'
p397
aS'/v/initial-route/105758757'
p398
aS'/v/allosaur/105754774'
p399
aS'/v/earnest-stemmingway/105757198'
p400
aS'/v/morning-thunder/105749632'
p401
aS'/v/super-scooper/105758955'
p402
aS'/v/pork-chop/105760296'
p403
aS'/v/wingshot/105758404'
p404
aS'/v/wishbone/105890923'
p405
aS'/v/wild-turkey/105759222'
p406
aS'/v/kickin-chicken/105765006'
p407
aS'/v/nic/105753472'
p408
aS'/v/over-and-out/105749914'
p409
aS'/v/emerald-city/105748948'
p410
aS'/v/faulty-logic/105749734'
p411
aS'/v/over-the-hill/105756796'
p412
aS'/v/scenic-route/105759804'
p413
aS'/v/bats-ass-dihedral/105751294'
p414
aS'/v/aerial-book/105754969'
p415
aS'/v/trident/105760602'
p416
aS'/v/brevitata/105760323'
p417
aS'/v/windy/105756460'
p418
aS'/v/climb-of-the-century/105753106'
p419
aS'/v/aerohead/105760944'
p420
aS'/v/aeronaut/105760941'
p421
aS'/v/aerospace/105750406'
p422
aS'/v/bachar-yer-aryan/105760476'
p423
aS'/v/wendego/105755923'
p424
aS'/v/the-evictor/105752338'
p425
aS'/v/fraid-line/106135595'
p426
aS'/v/the-final-eviction-aka-freeline/106049082'
p427
aS'/v/five-eight-crack/105749242'
p428
aS'/v/rincon-light/107719405'
p429
aS'/v/five-ten-crack/105748945'
p430
aS'/v/concentric/106664085'
p431
aS'/v/rincon/105748942'
p432
aS'/v/point-break/105749245'
p433
aS'/v/center-route/105750400'
p434
aS'/v/spicoli/105756394'
p435
aS'/v/raccoon-soup-aka-thunderbolts/105763692'
p436
aS'/v/camouflage/105753058'
p437
aS'/v/doc/106635318'
p438
aS'/v/sneezy/106756228'
p439
aS'/v/lazy/106635295'
p440
a.