(lp0
S'/v/europa/106506126'
p1
aS'/v/sunset-strip/108398190'
p2
aS'/v/millenium-falcon/106232615'
p3
aS'/v/freeway/105805906'
p4
aS'/v/upper-black-dyke/106999932'
p5
aS'/v/stairway-to-heaven/107253323'
p6
aS'/v/cruel-shoes/105918292'
p7
aS'/v/the-grand-wall/105806397'
p8
aS'/v/roman-chimneys/106151479'
p9
aS'/v/the-left-side/106498788'
p10
aS'/v/university-wall/106509963'
p11
aS'/v/merci-me/106527466'
p12
aS'/v/turnip/107000964'
p13
aS'/v/apron-strings/105886110'
p14
aS'/v/seasoned-in-the-sun/105979707'
p15
aS'/v/arrowroot/106007969'
p16
aS'/v/the-flake/106217003'
p17
aS'/v/exasperator/105806955'
p18
aS'/v/peasants-route/105903259'
p19
aS'/v/flex-capacitor/107745095'
p20
aS'/v/rutabaga/106018903'
p21
aS'/v/fungus-the-bogey-man/105995389'
p22
aS'/v/sunshine-chimney/107763151'
p23
aS'/v/a-pitch-in-time/105842913'
p24
aS'/v/sloppy-gordie/109297964'
p25
aS'/v/rainy-day-dream-away/105842909'
p26
aS'/v/doras-delight/107763194'
p27
aS'/v/slot-machine/105842934'
p28
aS'/v/a-cream-of-white-mice/105857119'
p29
aS'/v/golden-labs/106463231'
p30
aS'/v/manana/106221091'
p31
aS'/v/coogee-crack/105842943'
p32
aS'/v/xenolith-dance/106084722'
p33
aS'/v/bulletheads-east/107237875'
p34
aS'/v/liquid-gold/107234503'
p35
aS'/v/krimo-gold/109150168'
p36
aS'/v/boomstick-crack/106188277'
p37
aS'/v/bannana-peel/105934199'
p38
aS'/v/diedre/105857666'
p39
aS'/v/calculus-crack/106495528'
p40
aS'/v/rambles/107577227'
p41
aS'/v/sickle/107230062'
p42
aS'/v/snake/106065449'
p43
aS'/v/st-vitus-dance/105843781'
p44
aS'/v/sparrow/108643114'
p45
aS'/v/vector/106018628'
p46
aS'/v/south-arete/106776367'
p47
aS'/v/memorial-crack/106842580'
p48
aS'/v/the-bottom-line/107196033'
p49
aS'/v/calculus-direct/109399403'
p50
aS'/v/rock-on/105910904'
p51
aS'/v/over-the-rainbow/106188258'
p52
aS'/v/dessert-dike/106510631'
p53
aS'/v/dances-with-pigs/106571193'
p54
aS'/v/karens-math/106842574'
p55
aS'/v/one-scoop-with-delicious-dimples/108645264'
p56
aS'/v/rock-on-direct-aka-hard-on/107728011'
p57
aS'/v/dream-symphony/106071598'
p58
aS'/v/unfinished-symphony/106123259'
p59
aS'/v/angels-crest/105847203'
p60
aS'/v/blazing-saddles/106013332'
p61
aS'/v/borderline/106232309'
p62
aS'/v/high-plains-drifter/106109412'
p63
aS'/v/the-daily-planet/106136892'
p64
aS'/v/milk-run/106547079'
p65
aS'/v/milk-road/106999446'
p66
aS'/v/tantalus-wall/105880812'
p67
aS'/v/cerberus/105879165'
p68
aS'/v/midnight-run/105880822'
p69
aS'/v/sunshine-breakfast/106467453'
p70
aS'/v/sunblessed/105918391'
p71
aS'/v/the-squamish-butt-face/106864599'
p72
aS'/v/the-squamish-buttress/106072248'
p73
aS'/v/parallel-passages/107805195'
p74
aS'/v/new-life/107766503'
p75
aS'/v/high-plains-drifter/106852287'
p76
aS'/v/astrologger/106195535'
p77
aS'/v/alaska-highway/106209777'
p78
aS'/v/polaris/106232029'
p79
aS'/v/the-calling/107266847'
p80
aS'/v/the-ultimate-everything/106480430'
p81
aS'/v/joes-dyke/106621379'
p82
aS'/v/march-of-the-kitchen-utensils/107621883'
p83
aS'/v/ivan-meets-gi-joe/107621868'
p84
aS'/v/bop-til-you-drop/107621848'
p85
aS'/v/cat-crack/105958263'
p86
aS'/v/corn-flakes/105962497'
p87
aS'/v/stumps/105962510'
p88
aS'/v/clean-starts-/106621437'
p89
aS'/v/neat-and-clean/106621446'
p90
aS'/v/mouse-trap/107000945'
p91
aS'/v/corner-crack/105966234'
p92
aS'/v/sally-five-fingers/105962502'
p93
aS'/v/layback-flake/105987340'
p94
aS'/v/flying-circus/105845816'
p95
aS'/v/neat-and-cool/105910806'
p96
aS'/v/pink-flamingo/109192607'
p97
aS'/v/raging-duck/109192585'
p98
aS'/v/geritol/105903250'
p99
aS'/v/kangaroo-corner/105808602'
p100
aS'/v/laughing-crack/105959460'
p101
aS'/v/mosquito/105842817'
p102
aS'/v/phlegmish-dance/105857546'
p103
aS'/v/sphinxter-quits/105910942'
p104
aS'/v/wonderland/106173589'
p105
aS'/v/old-age/106527486'
p106
aS'/v/smoke-bluff-connection/106173601'
p107
aS'/v/seam-of-destinty/106847363'
p108
aS'/v/sms-delight/105842814'
p109
aS'/v/jabberwocky/106170451'
p110
aS'/v/quarryman/105857742'
p111
aS'/v/penny-lane/105842825'
p112
aS'/v/up-up-and-away/105857749'
p113
aS'/v/clandestine-affair/105954921'
p114
aS'/v/the-witch-doctors-apprentice/106681283'
p115
aS'/v/ugly-american-aka-ugly-anders/105941302'
p116
aS'/v/health-hazard/106530265'
p117
aS'/v/popeye-and-the-raven/105858078'
p118
aS'/v/climb--punishment/106028041'
p119
aS'/v/partners-in-crime/105842844'
p120
aS'/v/power-windows/106081063'
p121
aS'/v/werewolves-of-london/108267245'
p122
aS'/v/yorkshire-gripper/105923959'
p123
aS'/v/crime-of-the-century/105842838'
p124
aS'/v/dusty-eyes/107734956'
p125
aS'/v/frodos-first-step/105957607'
p126
aS'/v/jammers-delight/105957589'
p127
aS'/v/exit-stage-left/108593505'
p128
aS'/v/wisecrack/105857538'
p129
aS'/v/burgers-and-fries/105957572'
p130
aS'/v/libya-sucks/105957576'
p131
aS'/v/gollum/105957597'
p132
aS'/v/split-personality/108607696'
p133
aS'/v/bilbo-baggins/105957603'
p134
aS'/v/movin-on-over/105957617'
p135
aS'/v/high-boltage-line/105857542'
p136
aS'/v/peaches-and-cream/106969373'
p137
aS'/v/catch-me/108033560'
p138
aS'/v/nookie-monster/109399382'
p139
aS'/v/catch-me-quicker/106170436'
p140
aS'/v/catch-me-quick/107227920'
p141
aS'/v/catch-you/106255120'
p142
aS'/v/mcm/105910935'
p143
aS'/v/magical-child/105910924'
p144
aS'/v/ridge-runner/105972220'
p145
aS'/v/desperado/105910920'
p146
aS'/v/sammys-frog/107729157'
p147
aS'/v/the-zip/105941644'
p148
aS'/v/crystal-ball/106842568'
p149
aS'/v/sole-proprietorship/105941652'
p150
aS'/v/salal-jam/107640780'
p151
aS'/v/asleep-at-the-wheel/107640767'
p152
aS'/v/heavenly-ladder/106055688'
p153
aS'/v/orifice-fish/106055694'
p154
aS'/v/split-beaver/105951010'
p155
aS'/v/ferrets-folly/105957626'
p156
aS'/v/alexis-cracks/105958272'
p157
aS'/v/edible-panties/106521564'
p158
aS'/v/octopus-garden-in-the-shade/105963366'
p159
aS'/v/pipe-dream/105963374'
p160
aS'/v/harrys-crack/105963378'
p161
aS'/v/call-any-vegetable/108177039'
p162
aS'/v/unearthly-delights/106842554'
p163
aS'/v/monkey-coefficient/106842559'
p164
aS'/v/electric-ball/106842549'
p165
aS'/v/fern-gully/105963944'
p166
aS'/v/dog-legging/105963940'
p167
aS'/v/rampage/106590292'
p168
aS'/v/davy-jones-locker/105979750'
p169
aS'/v/pixie-corner/105979760'
p170
aS'/v/wonderland/105979728'
p171
aS'/v/joes-crack/105979738'
p172
aS'/v/white-rabbit/106170442'
p173
aS'/v/trixie/107075723'
p174
aS'/v/captain-hornblower/106111636'
p175
aS'/v/easter-island/106532940'
p176
aS'/v/out-to-easter/109223440'
p177
aS'/v/baby-lizard/106536519'
p178
aS'/v/out-to-lunge/106885573'
p179
aS'/v/centre-street/106018649'
p180
aS'/v/picket-line/106018662'
p181
aS'/v/cold-comfort/106193849'
p182
aS'/v/triage-arete/106235614'
p183
aS'/v/talking-holds/106255105'
p184
aS'/v/supervalue/106007175'
p185
aS'/v/lust/106193861'
p186
aS'/v/old-maid/106018918'
p187
aS'/v/nubile-woman/106018921'
p188
aS'/v/squatters-rights/106728424'
p189
aS'/v/first-class/106508167'
p190
aS'/v/point-blank/106427845'
p191
aS'/v/funarama/106728460'
p192
aS'/v/birthday-girl/108503964'
p193
aS'/v/check-mark/108199878'
p194
aS'/v/lumberland/106526794'
p195
aS'/v/the-gmb/106526801'
p196
aS'/v/erica/108197943'
p197
aS'/v/fissuremans-friend/107246839'
p198
aS'/v/gang-of-foreplay/107246850'
p199
aS'/v/twenty-minute-workout/107247232'
p200
aS'/v/looney-fringe/107247244'
p201
aS'/v/peaceful-warrior/107813952'
p202
aS'/v/coronary-bypass/108004982'
p203
aS'/v/crag-rat/108230711'
p204
aS'/v/elephantiasis/108259166'
p205
aS'/v/easy-skankin/108637577'
p206
aS'/v/jungle-warfare/106104431'
p207
aS'/v/birds-of-prey/105844620'
p208
aS'/v/photophobia/107630722'
p209
aS'/v/pipeline/105873508'
p210
aS'/v/the-great-game/106228408'
p211
aS'/v/right-wing/106999531'
p212
aS'/v/high-mountain-woody/105934194'
p213
aS'/v/stefanies-tears/106021944'
p214
aS'/v/old-style/106536542'
p215
aS'/v/curly/108260781'
p216
aS'/v/larry/108260789'
p217
aS'/v/caboose/105876735'
p218
aS'/v/pauls-crack/105948657'
p219
aS'/v/slap-and-tickle/108398621'
p220
aS'/v/hand-jive/108103187'
p221
aS'/v/crescent-crack/107224616'
p222
aS'/v/clean-crack/105876730'
p223
aS'/v/mushroom/106215913'
p224
aS'/v/laid-back/107256788'
p225
aS'/v/hairpin/105887144'
p226
aS'/v/mercury-vapour/107839661'
p227
aS'/v/centerfold/106230038'
p228
aS'/v/papoose-one/107256764'
p229
aS'/v/the-worlds-toughest-milkman/105910830'
p230
aS'/v/jugs-not-drugs/108303905'
p231
aS'/v/horrors-of-ivan/108189604'
p232
aS'/v/oscars-slab/106418522'
p233
aS'/v/zoe/105910842'
p234
aS'/v/staples-of-the-gluten-intolerant/107596457'
p235
aS'/v/in-the-firing-line/107732291'
p236
aS'/v/jeff-and-the-giant-reach/105910852'
p237
aS'/v/a-cougar-one-bite-brownie/107758295'
p238
aS'/v/heavy-petting-action/107758342'
p239
aS'/v/even-steven/106211226'
p240
aS'/v/pleasant-pheasant/105950090'
p241
aS'/v/underwire/107758359'
p242
aS'/v/no-name-road/106527496'
p243
aS'/v/food-frenzy/106240381'
p244
aS'/v/elastic-man/108259493'
p245
aS'/v/burning-down-the-couch/106240353'
p246
aS'/v/plumbline/106240425'
p247
aS'/v/black-water/106072648'
p248
aS'/v/the-flingus-cling/106240366'
p249
aS'/v/flight-of-the-challenger/106241546'
p250
aS'/v/chokin-a-grogan/107271224'
p251
aS'/v/zeasi/107271209'
p252
aS'/v/nostalgia-aint-what-it-used-to-be/107271215'
p253
aS'/v/wicker-cranium/105972238'
p254
aS'/v/a-little-testis/105950098'
p255
aS'/v/totally-clips/107235689'
p256
aS'/v/poster-boy/106007144'
p257
aS'/v/focus/108103171'
p258
aS'/v/up-from-the-bog/105954031'
p259
aS'/v/veils-of-illusion/105954044'
p260
aS'/v/black-butterfly/109228284'
p261
aS'/v/holy-grail/108197972'
p262
aS'/v/fathers-and-sons/105954036'
p263
aS'/v/magnet/107700123'
p264
aS'/v/flat-battery/106880494'
p265
aS'/v/little-spark/107768170'
p266
aS'/v/jump-start/107768178'
p267
aS'/v/lieback-crack/105966227'
p268
aS'/v/stairway/107273230'
p269
aS'/v/thriller-off-the-void/106007156'
p270
aS'/v/holiday-in-cambodia/106822355'
p271
aS'/v/orphan/106236039'
p272
aS'/v/big-daddys-ramp/106072236'
p273
aS'/v/short-sentry/106072240'
p274
aS'/v/hypertension/106007127'
p275
aS'/v/perspective/106070759'
p276
aS'/v/grand-daddy-overhang/106240552'
p277
aS'/v/sentry-box/106069940'
p278
aS'/v/claim-jumper/106070768'
p279
aS'/v/beginners-luck/106810706'
p280
aS'/v/brunser-overhang/109356536'
p281
aS'/v/kain-and-able/106999966'
p282
aS'/v/genesis/106999949'
p283
aS'/v/geneside/106999958'
p284
aS'/v/original-thin/106999974'
p285
aS'/v/the-reacharound/107850975'
p286
aS'/v/more-than-just-a-pretty-face/108259507'
p287
aS'/v/the-burglar/108259519'
p288
aS'/v/happy-day/110140396'
p289
aS'/v/klahanie-crack/105947052'
p290
aS'/v/cardhu-crack/106428241'
p291
aS'/v/urine-too-deep/106821267'
p292
aS'/v/skywalker/107198282'
p293
aS'/v/dirty-dicky/108214806'
p294
aS'/v/the-relish-route/108503837'
p295
aS'/v/split-decision/107246115'
p296
aS'/v/chewbacca/108275813'
p297
aS'/v/poultry-in-motion/106249062'
p298
aS'/v/local-boys-do-good/105918383'
p299
aS'/v/hungry-wolf/106072597'
p300
aS'/v/seal-cove-traverse/106010400'
p301
aS'/v/swept-away/106010417'
p302
aS'/v/lost-horizon/106010404'
p303
aS'/v/sole-mate/106010408'
p304
aS'/v/just-blessed/106526868'
p305
aS'/v/ants-go-marching/106327525'
p306
aS'/v/good-times/106327535'
p307
aS'/v/typical-squamish/106921482'
p308
aS'/v/burp-the-worm/107080916'
p309
aS'/v/wiretap/106844672'
p310
aS'/v/thriller-on-the-pillar/107000983'
p311
aS'/v/lefty/106866038'
p312
aS'/v/wingman/107229970'
p313
aS'/v/hiking-with-howie/106190748'
p314
aS'/v/preface/106218484'
p315
aS'/v/whats-right/106229402'
p316
aS'/v/whats-left/106190753'
p317
aS'/v/dogmatism/106229396'
p318
aS'/v/facility/106190766'
p319
aS'/v/basic-black/106229391'
p320
aS'/v/tradition/106190776'
p321
aS'/v/assholes-of-august/106218501'
p322
aS'/v/lichen-in-my-panties/107738106'
p323
aS'/v/not-fade-away/106191401'
p324
aS'/v/logans-run/106218531'
p325
aS'/v/wings-of-desire/106261946'
p326
aS'/v/plum-line/106219155'
p327
aS'/v/sagging-bumline/106219164'
p328
aS'/v/minor-skirmish/106243849'
p329
aS'/v/special-forces/107145489'
p330
aS'/v/genetic-mirror/108164628'
p331
aS'/v/the-raven-and-the-bear/106219357'
p332
aS'/v/looking-glass/106229355'
p333
aS'/v/genetic-mirror/106404138'
p334
aS'/v/slices-of-quince/106229243'
p335
aS'/v/batman/107625555'
p336
aS'/v/whit-knuckle-express/106229378'
p337
aS'/v/spro-dog/106474204'
p338
aS'/v/ready-to-strike/107292411'
p339
aS'/v/forgotten-realm/105959528'
p340
aS'/v/low-impact/105962603'
p341
aS'/v/the-voodoo-that-you-do/105962596'
p342
aS'/v/creeping-right/107775351'
p343
aS'/v/junkyard-patio/105962600'
p344
aS'/v/creepy-crawlers/107755928'
p345
aS'/v/rug-munchers/105959522'
p346
aS'/v/the-incredible-journey/106034530'
p347
aS'/v/from-beneath-you-it-devours-/107755922'
p348
aS'/v/the-boiler-room/106771722'
p349
aS'/v/small-is-beautiful/105962584'
p350
aS'/v/emil-and-the-detectives/105962588'
p351
aS'/v/charlottes-web/105960650'
p352
aS'/v/shaggy/106429154'
p353
aS'/v/bullet-the-blue-car/105960664'
p354
aS'/v/master-of-my-domain/105962620'
p355
aS'/v/giddy-up/106861046'
p356
aS'/v/the-flaming-arete/106570137'
p357
aS'/v/in-your-face/106570144'
p358
aS'/v/real-tv/106021977'
p359
aS'/v/polychronopolous/105963911'
p360
aS'/v/mirror-image/106006000'
p361
aS'/v/savage-beagle/106006006'
p362
aS'/v/kigijiushi/106006012'
p363
aS'/v/dark-dont-lie/106006022'
p364
aS'/v/boy-pie/106570017'
p365
aS'/v/pig-farm/106021968'
p366
aS'/v/fur-bodysuit/106881904'
p367
aS'/v/in-the-black/106879060'
p368
aS'/v/the-neutered-bovine/107199601'
p369
aS'/v/the-fleeing-heifer/106766001'
p370
aS'/v/the-mutation/107199641'
p371
aS'/v/bout-du-monde/106060080'
p372
aS'/v/gravity-cant-dance/106059552'
p373
aS'/v/this-is-the-new-stuff/106447704'
p374
aS'/v/yellow-beard/106447681'
p375
aS'/v/star-chek/107104796'
p376
aS'/v/9-im-not-against-it/107270232'
p377
aS'/v/12-blue-de-jour/107270238'
p378
aS'/v/7-i-might-possibly-consider-that/107270220'
p379
aS'/v/rocky-horror/107805100'
p380
aS'/v/where-in-the-world-is-carmen-pellegrino/106926496'
p381
aS'/v/great-expectations/106028545'
p382
aS'/v/crystal-ether/106174101'
p383
aS'/v/murder-in-the-dark/106174113'
p384
aS'/v/sleeping-princess/105995620'
p385
aS'/v/pig-pen/105995907'
p386
aS'/v/shark-tooth-flake/106356413'
p387
aS'/v/beautiful-arete/106744749'
p388
aS'/v/treefrog/105995600'
p389
aS'/v/bigfoot/106399353'
p390
aS'/v/karma-dogs-bog-chong/106507279'
p391
aS'/v/yak-check/106517307'
p392
aS'/v/jacks-crack/107203492'
p393
aS'/v/north-ridge/106995815'
p394
aS'/v/takakkaw-falls/107289456'
p395
aS'/v/northwest-ridge/106090216'
p396
aS'/v/south-ridge/106997512'
p397
aS'/v/-wiessners-route-aka-se-corner/106001260'
p398
aS'/v/buckingham-route-easy-version/106076265'
p399
aS'/v/wildflowers/105869608'
p400
aS'/v/surfs-up/106073035'
p401
aS'/v/kraus-mccarthy/106682554'
p402
aS'/v/furry-pink-arete/106001220'
p403
aS'/v/sunshine-crack/105868170'
p404
aS'/v/kain-route-south-ridge/105889985'
p405
aS'/v/north-east-ridge/105889511'
p406
aS'/v/mctech-arete/105872943'
p407
aS'/v/paddle-flake-direct/105869571'
p408
aS'/v/mctech-roof/107227174'
p409
aS'/v/energy-crisis/106001229'
p410
aS'/v/west-ridge/105869393'
p411
aS'/v/cooper-kor/105868747'
p412
aS'/v/beckey-chouinard/105872592'
p413
aS'/v/lions-way/105902686'
p414
aS'/v/ears-between/106076330'
p415
aS'/v/northeast-buttress/106108831'
p416
aS'/v/meathooks/106413869'
p417
aS'/v/direttissima/107140287'
p418
aS'/v/grillmairs-chimneys/105933306'
p419
aS'/v/kahl-wall/106025917'
p420
aS'/v/ne-buttress/105928964'
p421
aS'/v/keel-haul-wall/105933012'
p422
aS'/v/grey-waves/105933053'
p423
aS'/v/brewer-buttress/106073047'
p424
aS'/v/rundlehorn/107718343'
p425
aS'/v/gooseberry/107162935'
p426
aS'/v/turtle-mountain/108226542'
p427
aS'/v/wicked-gravity/108226533'
p428
aS'/v/south-face/107256605'
p429
aS'/v/aftonroe/107321855'
p430
aS'/v/east-ridge/105946596'
p431
aS'/v/joy/107186623'
p432
aS'/v/coire-dubh-integrale/107425223'
p433
aS'/v/blood-beach/106291751'
p434
aS'/v/birthday-ridge/106385666'
p435
aS'/v/front-of-the-pinnacle/106385677'
p436
aS'/v/aro-tango/109007909'
p437
aS'/v/mm/108344970'
p438
aS'/v/le-didre/108375902'
p439
aS'/v/ochra/108145859'
p440
aS'/v/arabesque/108380035'
p441
aS'/v/le-nain-de-jardin/108355794'
p442
aS'/v/au-gr-de-la-galjade/108355807'
p443
aS'/v/le-joyau-de-jade/108355816'
p444
aS'/v/the-raven-/108170241'
p445
aS'/v/the-philosophers-stone-/108170249'
p446
aS'/v/trident/108297355'
p447
aS'/v/le-sexe-des-anges/107704743'
p448
aS'/v/lch-lousse/108127794'
p449
aS'/v/tintin-au-tibet/107784197'
p450
aS'/v/hocus-pocus/107704721'
p451
aS'/v/sans-foi-ni-loi/107704763'
p452
aS'/v/cassonade/107704748'
p453
aS'/v/bonsa/107704756'
p454
aS'/v/shish-kebob-/106884695'
p455
aS'/v/this-bobs-for-you/106899039'
p456
aS'/v/plumb-bob/106941426'
p457
aS'/v/there-is-somethng-about-bob/106941410'
p458
aS'/v/bunny-hop/106884751'
p459
aS'/v/booty-and-the-hoe-fish/106897643'
p460
aS'/v/pine-sol/106923337'
p461
aS'/v/the-dihedral-/106892481'
p462
aS'/v/killer-bunnies-from-mars--attack-of-the-killer-bunnies/106892444'
p463
aS'/v/40-foot-smurf/106899012'
p464
aS'/v/brle-pour-ciel/106941388'
p465
aS'/v/stigmata/107621582'
p466
aS'/v/sidewinder/106885903'
p467
aS'/v/the-corner/106897660'
p468
aS'/v/sputnik-aka-nickies-dickie-/106937863'
p469
aS'/v/sausages/106364473'
p470
aS'/v/candy/110560773'
p471
aS'/v/easy-company/108097462'
p472
aS'/v/tiger-woods/110744893'
p473
aS'/v/stairway-to-heaven/106799115'
p474
aS'/v/fais-toi-pas-mal/106797087'
p475
aS'/v/pass-the-moonshine/106798163'
p476
aS'/v/about-a-rope/106798174'
p477
aS'/v/snakepeel/107729991'
p478
aS'/v/le-jardinier-de-la-dalle/107407350'
p479
aS'/v/2-tours/107410134'
p480
aS'/v/chubby-girls-wearing-shower-curtains/107185832'
p481
aS'/v/schmucks-unlimited/107183057'
p482
aS'/v/chica-bonita/107178519'
p483
aS'/v/torpedoes-and-jellyfish/107178567'
p484
aS'/v/kareoke/107202843'
p485
aS'/v/err-to-the-throne/107202869'
p486
aS'/v/nothing-but-air/107202898'
p487
aS'/v/another-drumstick/107202891'
p488
aS'/v/chicken-little/107202884'
p489
aS'/v/-medusa/107202942'
p490
aS'/v/cracktacular/107259074'
p491
aS'/v/face-the-pockets/107466418'
p492
aS'/v/southeast-face/105905655'
p493
a.