(lp0
S'/v/south-crack-unknown/106207839'
p1
aS'/v/right-crack/105748084'
p2
aS'/v/north-face-center/105748093'
p3
aS'/v/empor/105748142'
p4
aS'/v/indistinction/105748074'
p5
aS'/v/northwest-corner/105748145'
p6
aS'/v/north-face-left/105748148'
p7
aS'/v/west-rib/105751789'
p8
aS'/v/west-dihedral/105970053'
p9
aS'/v/huston-crack/105756784'
p10
aS'/v/brownies-in-the-basin/105756787'
p11
aS'/v/west-cracks/105757096'
p12
aS'/v/hurley-direct/105758188'
p13
aS'/v/undocumented-left-of-fannie-mae/106500102'
p14
aS'/v/east-crack/105751171'
p15
aS'/v/night-vision/105751810'
p16
aS'/v/unknown/105748108'
p17
aS'/v/corn-on-the-cob/105764739'
p18
aS'/v/empor-scary-variant/106038167'
p19
aS'/v/aid-crack/105748096'
p20
aS'/v/face-route/106066019'
p21
aS'/v/ms-fanny-le-pump/105812633'
p22
aS'/v/thunder-road/105764868'
p23
aS'/v/maid-marian/105748041'
p24
aS'/v/little-johns-big-stick/105748044'
p25
aS'/v/the-prince-and-the-pauper/106466173'
p26
aS'/v/men-in-tights/105760656'
p27
aS'/v/boyz-from-the-hood/106050176'
p28
aS'/v/tuckered-and-fried/105748038'
p29
aS'/v/fatman-and-robin/105762801'
p30
aS'/v/tony-bubbs-little-stick/105762816'
p31
aS'/v/sheriffs-tariff/105748035'
p32
aS'/v/the-avenger-fatman-and-robin/105975347'
p33
aS'/v/merry-men/105748026'
p34
aS'/v/robbin-the-hood/105748032'
p35
aS'/v/prince-of-thieves/105748029'
p36
aS'/v/east-slab/105748011'
p37
aS'/v/east-slab-east/105827243'
p38
aS'/v/the-owl/105748002'
p39
aS'/v/cozyhang/105748005'
p40
aS'/v/east-of-the-sun/105748008'
p41
aS'/v/left-edge/105751543'
p42
aS'/v/e-of-east-slab-east/105756454'
p43
aS'/v/east-face-far-right/105760317'
p44
aS'/v/prelude-to-king-kong/105747999'
p45
aS'/v/signs-of-life/105759465'
p46
aS'/v/gorillas-delight/105754747'
p47
aS'/v/cozy-overhang/105759333'
p48
aS'/v/cozyhang-10a-variation/105974318'
p49
aS'/v/the-umph-slot/105758578'
p50
aS'/v/black-plague/105763635'
p51
aS'/v/super-squeeze/105752110'
p52
aS'/v/pinnacle/105764871'
p53
aS'/v/flash-dihedral-knapp-version/106129861'
p54
aS'/v/flash-dihedral-rossiter-version/105759921'
p55
aS'/v/pine-tree-route/105756574'
p56
aS'/v/chimney/106120956'
p57
aS'/v/classic-finger-crack/105748169'
p58
aS'/v/tough-situation/105748163'
p59
aS'/v/west-face-variation/105748181'
p60
aS'/v/standard-route/105748175'
p61
aS'/v/standard-variation/105953448'
p62
aS'/v/mojo-rising/105750094'
p63
aS'/v/monster-woman/105754198'
p64
aS'/v/ah-maw/105977675'
p65
aS'/v/left-wing/105751498'
p66
aS'/v/wingtip/105756865'
p67
aS'/v/whats-up/105756580'
p68
aS'/v/fm/105753292'
p69
aS'/v/northwest-face/105748199'
p70
aS'/v/the-heartland/105758236'
p71
aS'/v/zolar-czakl/105977683'
p72
aS'/v/zolar-czakl-direct/105748193'
p73
aS'/v/flake/105748187'
p74
aS'/v/grand-jam/106129846'
p75
aS'/v/grand-jam-right/106129854'
p76
aS'/v/petite-arete/106158362'
p77
aS'/v/grand-jam-left/106133959'
p78
aS'/v/perfect-route/105748014'
p79
aS'/v/south-face/105748023'
p80
aS'/v/crease/105748020'
p81
aS'/v/north-face-left/105748205'
p82
aS'/v/bitty-buttress/105748265'
p83
aS'/v/jam-left/105759153'
p84
aS'/v/right-crack-or-last-crack-aka-mirage/105890878'
p85
aS'/v/jaguary/105890858'
p86
aS'/v/peapod/105758575'
p87
aS'/v/rise-and-shine/105759225'
p88
aS'/v/return-to-sender/105761676'
p89
aS'/v/the-jitters/105759231'
p90
aS'/v/the-buzz/105753976'
p91
aS'/v/the-lorax/105759219'
p92
aS'/v/catalyst/105748277'
p93
aS'/v/far-left/105748283'
p94
aS'/v/mirage/105749317'
p95
aS'/v/hesitation/105748289'
p96
aS'/v/unknown-left-side/105973231'
p97
aS'/v/twofers-gully/106027653'
p98
aS'/v/i-robot/105748367'
p99
aS'/v/are-we-not-men/105748373'
p100
aS'/v/malign/105756556'
p101
aS'/v/hands-off/105758317'
p102
aS'/v/bent-faith/105759762'
p103
aS'/v/are-we-not-robots/106159945'
p104
aS'/v/twofers/105748385'
p105
aS'/v/twofers-bypass/105748388'
p106
aS'/v/grins/105748418'
p107
aS'/v/the-big-spit/105756553'
p108
aS'/v/cruel-shoes/105748439'
p109
aS'/v/last-call/105748636'
p110
aS'/v/nightcap/105750520'
p111
aS'/v/tipsey/105756559'
p112
aS'/v/bad-sneakers/105748430'
p113
aS'/v/the-great-race/105759765'
p114
aS'/v/dementia/105748412'
p115
aS'/v/cheers-aka-thrill-of-the-chaise/105751477'
p116
aS'/v/last-laugh/105756565'
p117
aS'/v/teetotaler/105756568'
p118
aS'/v/seein-double/105762609'
p119
aS'/v/rush-hour/105748633'
p120
aS'/v/left-crack/105748454'
p121
aS'/v/thin-crack/105748460'
p122
aS'/v/lieback/105748472'
p123
aS'/v/regular-route/105748466'
p124
aS'/v/electra-glide/105748484'
p125
aS'/v/catch-you-later/105748487'
p126
aS'/v/fistula/106840751'
p127
aS'/v/ho-hum/105759738'
p128
aS'/v/mons/105748102'
p129
aS'/v/jam-it-variation-/107636951'
p130
aS'/v/idle-hands/105748079'
p131
aS'/v/jam-it/105748099'
p132
aS'/v/qs/105748105'
p133
aS'/v/jazz-on-the-mezzanine/105762738'
p134
aS'/v/the-vampire/105758011'
p135
aS'/v/thats-weak/105748274'
p136
aS'/v/crack-of-desperation/105758290'
p137
aS'/v/monkeys-sister/106546321'
p138
aS'/v/monkeys-uncle/105757210'
p139
aS'/v/stage-fright/105758422'
p140
aS'/v/trash-it-and-move-on/105758443'
p141
aS'/v/pin-cushion/105760398'
p142
aS'/v/fear-of-sunlight/105751471'
p143
aS'/v/le-stat/105760338'
p144
aS'/v/the-bureau-pitch-1/106180614'
p145
aS'/v/the-good-the-bad-and-the-jacked/105758419'
p146
aS'/v/ace/105764058'
p147
aS'/v/wanker/105757207'
p148
aS'/v/heart-of-the-narrows/105764007'
p149
aS'/v/old-dihedral/108148284'
p150
aS'/v/dan-d-line/105957381'
p151
aS'/v/hare-balls/105748358'
p152
aS'/v/unnamed-submitted-as-docs-route/105749539'
p153
aS'/v/bock/106274989'
p154
aS'/v/surprising-slab/105748316'
p155
aS'/v/finger-crack/105748352'
p156
aS'/v/spread-eages-dhare/105748364'
p157
aS'/v/constrictor/105748370'
p158
aS'/v/hypotenuse/105748376'
p159
aS'/v/boiling-point/105748382'
p160
aS'/v/left-angling-crack/105749305'
p161
aS'/v/night-train/105748319'
p162
aS'/v/ebb-tide/105748295'
p163
aS'/v/arte/105748331'
p164
aS'/v/antagonism/105748340'
p165
aS'/v/contortionists-pleasure/105992111'
p166
aS'/v/unknown/105992126'
p167
aS'/v/unknown-variation/105992133'
p168
aS'/v/qubec-connection/105850549'
p169
aS'/v/el-gallito/105993425'
p170
aS'/v/magie-noire/105852519'
p171
aS'/v/warlock-pinchers/106209610'
p172
aS'/v/pinche-guey/106209595'
p173
aS'/v/west-face/105757741'
p174
aS'/v/jacksons-wall/105764178'
p175
aS'/v/west-face-direct-start/108315985'
p176
aS'/v/cussin-crack/105748705'
p177
aS'/v/baileys-overhang/105748708'
p178
aS'/v/curving-crack/105749293'
p179
aS'/v/the-black-crack/105749899'
p180
aS'/v/south-face/105750373'
p181
aS'/v/skunk-crack/105757534'
p182
aS'/v/circadian-rhythms/105759636'
p183
aS'/v/by-gully/105760530'
p184
aS'/v/jacksons-wall-direct/105757072'
p185
aS'/v/coffin-crack/105758410'
p186
aS'/v/comeback-crack/105758587'
p187
aS'/v/the-big-splash/105955297'
p188
aS'/v/beetle-bailey/106522797'
p189
aS'/v/gluten-free/107578406'
p190
aS'/v/tongo/105749893'
p191
aS'/v/athletes-feat/105749872'
p192
aS'/v/final-exam/105758341'
p193
aS'/v/polyester-leisure-suit/105757729'
p194
aS'/v/pass-fail-option/105758344'
p195
aS'/v/storming-the-castle/106118679'
p196
aS'/v/the-sting/106987720'
p197
aS'/v/country-club-crack/105748711'
p198
aS'/v/englishmans-home/105757945'
p199
aS'/v/atlas-shrugged/105749896'
p200
aS'/v/boot-lead/105755746'
p201
aS'/v/the-gill-crack/105749902'
p202
aS'/v/never-a-dull-moment/106213673'
p203
aS'/v/nobodys-home/107572823'
p204
aS'/v/mexican-picnic/107572773'
p205
aS'/v/tourist-extravagance/106332952'
p206
aS'/v/crank-it-aka-slabio/105753658'
p207
aS'/v/frictionary/105749821'
p208
aS'/v/the-touch/105749824'
p209
aS'/v/choss-temple-pilots/105752299'
p210
aS'/v/monkey-bob/105764040'
p211
aS'/v/south-crack/105764760'
p212
aS'/v/dutch-oven/105752227'
p213
aS'/v/chasing-sticks/105755278'
p214
aS'/v/vitamin-v/105764184'
p215
aS'/v/double-down/105764166'
p216
aS'/v/dirty-daves-dumpster-dive/105764181'
p217
aS'/v/wavy-gravy/105764187'
p218
aS'/v/the-fix/105754732'
p219
aS'/v/killer-fish-taco/105754729'
p220
aS'/v/platinum-curl/105752233'
p221
aS'/v/hood-surfing-in-socks/105752230'
p222
aS'/v/wise-crack/105758590'
p223
aS'/v/north-crack/107524446'
p224
aS'/v/the-other-one/105753604'
p225
aS'/v/pocket-fisherman/105868232'
p226
aS'/v/furious-howard-brown/105753808'
p227
aS'/v/mercy-drilling/105758020'
p228
aS'/v/curve-of-binding-energy/105753811'
p229
aS'/v/american-beauty/105757510'
p230
aS'/v/high-test/106359479'
p231
aS'/v/owl-juju/105868274'
p232
aS'/v/owl-on-the-prowl/105755044'
p233
aS'/v/ground-zero/105755041'
p234
aS'/v/linking-logs/105835496'
p235
aS'/v/chicken-hawk/105748876'
p236
aS'/v/wessel-in-the-chicken-coop/105751024'
p237
aS'/v/mommy-blocker/105752284'
p238
aS'/v/chicken-delight/105752269'
p239
aS'/v/rubber-chicken/105752272'
p240
aS'/v/daddy-blocker/105752281'
p241
aS'/v/chicken-lips/105752275'
p242
aS'/v/alfa-chick/105752278'
p243
aS'/v/infa-red-riding-hood/105752368'
p244
aS'/v/mother-goose/105752371'
p245
aS'/v/the-big-dipper/105748885'
p246
aS'/v/three-little-pigs/106002738'
p247
aS'/v/hee-haw/105868187'
p248
aS'/v/beaver-fever/105753559'
p249
aS'/v/leave-it-to-beaver/106555935'
p250
aS'/v/butt-luscious/105749533'
p251
aS'/v/jolly-jug/105764235'
p252
aS'/v/no-doze/105748888'
p253
aS'/v/go-dog-go/105764238'
p254
aS'/v/salad-shooter/106756865'
p255
aS'/v/geek-in-the-creek/105751867'
p256
aS'/v/hair-of-the-dog/105751864'
p257
aS'/v/welcome-wagon/105751660'
p258
aS'/v/bone-home/105752224'
p259
aS'/v/absolute-boulder-canyon/105751666'
p260
aS'/v/flying-machines/105748867'
p261
aS'/v/dyno-monkey/105748864'
p262
aS'/v/rubberneck/105835508'
p263
aS'/v/warm-up/106066531'
p264
aS'/v/warf-factor/105852788'
p265
aS'/v/whippin-post/105852778'
p266
aS'/v/walk-in-the-park/105999132'
p267
aS'/v/stryker/105868220'
p268
aS'/v/coffee-pot-crack/105748873'
p269
aS'/v/jaws/105751861'
p270
aS'/v/the-mustard-seed/105748891'
p271
aS'/v/the-forgiven/105750670'
p272
aS'/v/the-good-book/105750739'
p273
aS'/v/assault-of-the-earth/105750673'
p274
aS'/v/victory-in-de-feet/105750682'
p275
aS'/v/repo-man/105752068'
p276
aS'/v/candelarias-crack/105748855'
p277
aS'/v/runaway/105764853'
p278
aS'/v/lucky-strikes-again/105758629'
p279
aS'/v/fly-swatter/105751642'
p280
aS'/v/pri-moe/105758542'
p281
aS'/v/the-bait/105752374'
p282
aS'/v/fly-trap/105754912'
p283
aS'/v/dampened-enthusiasm/105754909'
p284
aS'/v/joy-ride/105749548'
p285
aS'/v/der-letzte-zug/105763947'
p286
aS'/v/work-it-on-out/106023280'
p287
aS'/v/give-the-dog-a-bone/105754927'
p288
aS'/v/the-badger-traverse/106090776'
p289
aS'/v/great-dihedral/105749698'
p290
aS'/v/to-the-sun/105867406'
p291
aS'/v/eagle-snacks/105751195'
p292
aS'/v/eagle-chick/105761238'
p293
aS'/v/eagle-hardware/105749557'
p294
aS'/v/golden-eagle/105749560'
p295
aS'/v/eagle-eyes/105761292'
p296
aS'/v/buddha-belly/105751177'
p297
aS'/v/green-panther/105751399'
p298
aS'/v/morning-sunshine/105753724'
p299
aS'/v/altoids-on-the-beach/105753133'
p300
aS'/v/waves-of-rays/105753160'
p301
aS'/v/howl-of-a-hungry-cat/105753151'
p302
aS'/v/montana-floodgates/105749569'
p303
aS'/v/waves-on-the-beach/105757987'
p304
aS'/v/lady-of-the-light/105753148'
p305
aS'/v/crack-corner/105765039'
p306
aS'/v/animation-aka-jaycenes-dance/105749785'
p307
aS'/v/old-dihedral/105758407'
p308
aS'/v/familiar-strangers/105763887'
p309
aS'/v/gull-whackers/105888283'
p310
aS'/v/hope-and-pray/106124805'
p311
aS'/v/we-dont-do-crack/106147886'
p312
aS'/v/laurel--hardy-meet-abbott--costello/106106417'
p313
aS'/v/lazy-day/106147677'
p314
aS'/v/unfamiliar-strangers/105762684'
p315
aS'/v/ride-my-see-saw/106135291'
p316
aS'/v/triple-play/106386563'
p317
aS'/v/is-it-ready-yetmoe/106107243'
p318
aS'/v/talking-out-of-turn/106113458'
p319
aS'/v/strange-times/106121979'
p320
aS'/v/joint-venture/105749782'
p321
aS'/v/free-willie/105749956'
p322
aS'/v/cannabis-sportiva/105753067'
p323
aS'/v/nice-to-be-here/106136111'
p324
aS'/v/wine-and-roses/106157377'
p325
aS'/v/the-balance/106121675'
p326
aS'/v/melancholy-man/106109550'
p327
aS'/v/tuesday-afternoon/106144480'
p328
aS'/v/animal-magnetism/105753505'
p329
aS'/v/new-beginnings/105757459'
p330
aS'/v/isnt-life-strange/106110630'
p331
aS'/v/threshold-of-a-dream/106125224'
p332
aS'/v/animal-riots-activist/105754999'
p333
aS'/v/sundog/105757231'
p334
aS'/v/cujo-tranquilizer/105757234'
p335
aS'/v/feeding-the-beast-aka-beast-food/105757429'
p336
aS'/v/days-of-future-passed-aka-our-future-has-passed/105758080'
p337
aS'/v/beast-food-right/106304100'
p338
aS'/v/blockhead/106253127'
p339
aS'/v/beast-food-left/106304082'
p340
aS'/v/split-personality/107575111'
p341
aS'/v/evolution-revolution/105749959'
p342
aS'/v/piles-of-trials/105757018'
p343
aS'/v/the-fifth-world/105758895'
p344
aS'/v/global-gorilla/105749779'
p345
aS'/v/animal-instinct/105755935'
p346
aS'/v/lovely-to-see-you/106135888'
p347
aS'/v/pit-bull-prowser/105751546'
p348
aS'/v/hands-of-destiny/105751672'
p349
aS'/v/reversal-roof/106147074'
p350
aS'/v/closer-to-god/106159335'
p351
aS'/v/sabrinas-choice/105883877'
p352
aS'/v/salisbury-steak-crack/105833241'
p353
aS'/v/cow-patty-crack/105764658'
p354
aS'/v/dont-pull-on-the-udder/105764727'
p355
aS'/v/whats-mine-is-yours/106216226'
p356
aS'/v/get-your-dieck-off-my-barnyard-animals/105764637'
p357
aS'/v/just-another-cows-climb/105833248'
p358
aS'/v/couch-potato/106216208'
p359
aS'/v/sofa-kingdom/105750685'
p360
aS'/v/just-moo-it/105765042'
p361
aS'/v/little-stevies-favorite-heifer/105764634'
p362
aS'/v/ruff-roof/105755917'
p363
aS'/v/bull-fight/105764631'
p364
aS'/v/dark-tower/105753820'
p365
aS'/v/lothlorien/105750745'
p366
aS'/v/road-to-isengard/105756358'
p367
aS'/v/glennevere/105756532'
p368
aS'/v/twin-cracks-right/105850906'
p369
aS'/v/the-memory-of-trees/105750922'
p370
aS'/v/twin-cracks-left/105850865'
p371
aS'/v/minas-tireth/105761964'
p372
aS'/v/twin-peaks/105756535'
p373
aS'/v/prayer-wheel/106066494'
p374
aS'/v/elegant-peasant/105752140'
p375
aS'/v/the-treadmill/105752137'
p376
aS'/v/warm-up/105752134'
p377
aS'/v/inca-stone/105762423'
p378
aS'/v/iron-maiden/105760608'
p379
aS'/v/tunnel-of-love/105760611'
p380
aS'/v/sword-in-the-stone/105862660'
p381
aS'/v/mists-of-avalon/105761322'
p382
aS'/v/spare-rib/105756838'
p383
aS'/v/slayer/105761262'
p384
aS'/v/marquis-de-sade/105761268'
p385
aS'/v/sex-slave/105761319'
p386
aS'/v/the-anti-sport/106792673'
p387
aS'/v/the-sport-climbers-demise/106804749'
p388
aS'/v/body-count/105761265'
p389
aS'/v/the-tower/105761340'
p390
aS'/v/the-magician/105857146'
p391
aS'/v/wheel-of-fortune/105761337'
p392
aS'/v/the-hanged-man/105761334'
p393
aS'/v/lust/105761271'
p394
aS'/v/the-fool/105761343'
p395
aS'/v/the-horse/105764151'
p396
aS'/v/the-devil/105761274'
p397
aS'/v/goat-fer/105764280'
p398
aS'/v/fapanese-direct/106129209'
p399
aS'/v/the-constant-gardener-aka-the-pursuit-of-fappiness/106129223'
p400
aS'/v/earth-angel/105764436'
p401
aS'/v/pillar/105825469'
p402
aS'/v/dihedral-one/105764919'
p403
aS'/v/dominatrix/105761361'
p404
aS'/v/dihedral-two/105816313'
p405
aS'/v/common-denominator/105765201'
p406
aS'/v/dom-perignon/105758158'
p407
aS'/v/curvilinear/105764523'
p408
aS'/v/dominator/105758062'
p409
aS'/v/dead-can-dance/105757393'
p410
aS'/v/the-dead-zone/105764229'
p411
aS'/v/dead-again/105760935'
p412
aS'/v/isle-of-the-dead/105756730'
p413
aS'/v/stigmata/105758260'
p414
aS'/v/the-clipboard/105758257'
p415
aS'/v/chairman-of-the-board/105761295'
p416
aS'/v/midway/105756592'
p417
aS'/v/disinclination/105761364'
p418
aS'/v/incline-club/105756484'
p419
aS'/v/tomb-of-sorrows/105761367'
p420
aS'/v/supernatural/105761349'
p421
aS'/v/flashpoint/105834727'
p422
aS'/v/strange-science/105754129'
p423
aS'/v/free-fall/105758413'
p424
aS'/v/ripcord/105761298'
p425
aS'/v/thus-us/105831858'
p426
aS'/v/crack-love-ii/105836099'
p427
aS'/v/resurrection/105764421'
p428
aS'/v/mystery-tour/105839886'
p429
aS'/v/mystery-ship/105757942'
p430
aS'/v/crack-love/105834686'
p431
aS'/v/ghost-ship/105839865'
p432
aS'/v/the-enemy-within/105987462'
p433
aS'/v/the-art-of-war/105831811'
p434
aS'/v/ship-of-fools/105839872'
p435
aS'/v/ancient-light/105761370'
p436
aS'/v/ancient-fright/105764418'
p437
aS'/v/war-horse/105833627'
p438
aS'/v/crack-love-iii/105842443'
p439
aS'/v/blade/105841512'
p440
aS'/v/dragon-fly/105764544'
p441
aS'/v/dragon-slayer/105764559'
p442
aS'/v/sorcerers-apprentice/105764643'
p443
aS'/v/charons-boat/105764361'
p444
aS'/v/dragon-direct/105764763'
p445
aS'/v/knight-of-swords/105764649'
p446
aS'/v/merlins-enigma/105764343'
p447
aS'/v/yoni/105764259'
p448
aS'/v/isis/105764256'
p449
aS'/v/amrita/105764499'
p450
aS'/v/ethereal/105840803'
p451
aS'/v/knappweed-herbacide/105752116'
p452
aS'/v/road-to-emmaus/106226356'
p453
aS'/v/new-road/106226364'
p454
aS'/v/the-joker/105748436'
p455
aS'/v/willard/105752074'
p456
aS'/v/the-riddler/105757507'
p457
aS'/v/mr-two-face/105757516'
p458
aS'/v/new-test-of-men/106226347'
p459
aS'/v/elanor/105756691'
p460
aS'/v/dark-knight/105763143'
p461
aS'/v/thunderdome/105750787'
p462
aS'/v/empire-of-the-fenceless/105756790'
p463
aS'/v/white-men-cant-jump/105752077'
p464
aS'/v/tell-tale-heart/105748424'
p465
aS'/v/barbarians/105749692'
p466
aS'/v/the-penguin/105764214'
p467
aS'/v/catwoman/105750772'
p468
aS'/v/the-flying-beast/105750778'
p469
aS'/v/pterodactyl-traverse/105756994'
p470
aS'/v/evermore/105757048'
p471
aS'/v/dynamic-duel/105750775'
p472
aS'/v/nevermore/105757513'
p473
aS'/v/cant-please-everyone/106193454'
p474
aS'/v/porch-monkey/105756952'
p475
aS'/v/the-angel-of-death-formerly-listed-as-drink-to-puke/105761472'
p476
aS'/v/hydraulic-sandwich/105761469'
p477
aS'/v/icy-paralyzer/105761475'
p478
aS'/v/dexter/106565030'
p479
aS'/v/nurse-jackie/106565026'
p480
aS'/v/californication/106565013'
p481
aS'/v/weeds/106565020'
p482
aS'/v/friends/106564960'
p483
aS'/v/reunion/106564976'
p484
aS'/v/summer-nights/106564985'
p485
aS'/v/rain-check/106564938'
p486
aS'/v/loyalty/106571828'
p487
aS'/v/lichenthrope-aka-good-clean-fun/105758125'
p488
aS'/v/side-dish/106571805'
p489
aS'/v/hustle/106571816'
p490
aS'/v/firestarter/106571850'
p491
aS'/v/spooked/106571875'
p492
aS'/v/respect/108236884'
p493
aS'/v/thunderhead/106565001'
p494
aS'/v/smallville/106565008'
p495
aS'/v/rain-delay/106571843'
p496
aS'/v/fire-and-rain/106571860'
p497
aS'/v/quick-silver/106564989'
p498
aS'/v/erika/106564995'
p499
aS'/v/lightning-strike/106564948'
p500
aS'/v/full-respect/106571834'
p501
aS'/v/hummingbird/107219825'
p502
aS'/v/better-you-than-me--around-the-corner/107681459'
p503
aS'/v/the-ancient-of-days/107678593'
p504
aS'/v/war-drums/107681563'
p505
aS'/v/wyoming-prairie-dogs/109180206'
p506
aS'/v/grizzly-rose/109316087'
p507
aS'/v/big-tuna/107681602'
p508
aS'/v/yellow-tail/106135320'
p509
aS'/v/golden-rose/105762747'
p510
aS'/v/quick-chill/105759879'
p511
aS'/v/ground-swell/105759927'
p512
aS'/v/aqua-regia/106154984'
p513
aS'/v/crack-up/105759951'
p514
aS'/v/south-beach/105765117'
p515
aS'/v/muaddib/105817156'
p516
aS'/v/momentum-operator/105759948'
p517
aS'/v/out-to-pasture-aka-momentus-fist-trainer/105824790'
p518
aS'/v/white-trash/105841176'
p519
aS'/v/fit-for-life/105765045'
p520
aS'/v/kate-moss/105760950'
p521
aS'/v/right-side-aka-bong-session/105764664'
p522
aS'/v/specter/105764433'
p523
aS'/v/gyromancy/105760854'
p524
aS'/v/smoke-down/105839969'
p525
aS'/v/consilience/105760851'
p526
aS'/v/fk-you/105764175'
p527
aS'/v/bands-of-gold/105764172'
p528
aS'/v/pipe-dreams/105764169'
p529
aS'/v/dracula/105832470'
p530
aS'/v/caught-in-the-web/105760548'
p531
aS'/v/resonator/105989981'
p532
aS'/v/mordred/106945277'
p533
aS'/v/into-the-mystic/105761244'
p534
aS'/v/mystical-melange/105761388'
p535
aS'/v/jungle-of-stone/105760908'
p536
aS'/v/black-rain/105761034'
p537
aS'/v/walk-on-the-wide-side/105762936'
p538
aS'/v/prince-charmer/105762174'
p539
aS'/v/eight-miles-high/105761250'
p540
aS'/v/arcanum/105761253'
p541
aS'/v/kama-sutra/105762948'
p542
aS'/v/mystic-mile/105761247'
p543
aS'/v/sunlight-makes-me-paranoid/105762831'
p544
aS'/v/immaculate-deception/105762939'
p545
aS'/v/lightspeed/105762153'
p546
aS'/v/wings-of-desire/105762156'
p547
aS'/v/mind-bender/105762798'
p548
aS'/v/aerial-boundaries/105761037'
p549
aS'/v/lost-highway/105762813'
p550
aS'/v/magic-wand/105761073'
p551
aS'/v/christal-ball/105761070'
p552
aS'/v/way-of-the-wizard/105761373'
p553
aS'/v/snow-crash/105761076'
p554
aS'/v/dont-get-me-started/105761163'
p555
aS'/v/start-me-up/105761160'
p556
aS'/v/left-line/105761145'
p557
aS'/v/crumbs/106021988'
p558
aS'/v/stellar-drifter/105761082'
p559
aS'/v/right-line/105761142'
p560
aS'/v/the-luminosity/105761157'
p561
aS'/v/contact/105761214'
p562
aS'/v/mission-to-mars/105761148'
p563
aS'/v/tower-of-power/105761154'
p564
aS'/v/twilight-zone/105762546'
p565
aS'/v/mephistophiles/105764253'
p566
aS'/v/cosmic-explorer/105761079'
p567
aS'/v/sin-gaz/108244424'
p568
aS'/v/sinopia/105761358'
p569
aS'/v/van-damage/107345416'
p570
aS'/v/the-orb/105761355'
p571
aS'/v/its-my-swamp/105762639'
p572
aS'/v/romancing-the-stone/105764586'
p573
aS'/v/nala/106181256'
p574
aS'/v/tese/105764685'
p575
aS'/v/no-direction-home/105764709'
p576
aS'/v/war-is-love/105764715'
p577
aS'/v/panic-attack-aka-bobbombs-over-baghdad/106197491'
p578
aS'/v/teenage-terrorists/105856439'
p579
aS'/v/tipskin-jihad/106187188'
p580
aS'/v/griffon/105764562'
p581
aS'/v/wheres-vaino/105764583'
p582
aS'/v/cutthroat/105764568'
p583
aS'/v/greenback/105764571'
p584
aS'/v/mithril/105764745'
p585
aS'/v/myth-of-freedom/105764826'
p586
aS'/v/mjolnir/105764682'
p587
aS'/v/excalibur/105764781'
p588
aS'/v/straight-out-of-compton/105764910'
p589
aS'/v/jersey-devil/105764892'
p590
aS'/v/minnesota-fats/105764895'
p591
aS'/v/philadelphia-flyer/105764889'
p592
aS'/v/nick-of-time/105975521'
p593
aS'/v/face-off/105975926'
p594
aS'/v/clean-sweep/105981726'
p595
aS'/v/total-eclipse/105968232'
p596
aS'/v/stayin-alive/105975956'
p597
aS'/v/toe-the-line/105957789'
p598
aS'/v/sidekick/105975428'
p599
aS'/v/tag-team/105983024'
p600
aS'/v/generous-donation/105960629'
p601
aS'/v/join-the-party/105978905'
p602
aS'/v/buried-treasure/105988542'
p603
aS'/v/tree-line/105996811'
p604
aS'/v/twilight-time/105994585'
p605
aS'/v/fields-of-gold/106028197'
p606
aS'/v/bobbys-back/105996018'
p607
aS'/v/the-twilight-kid/106022527'
p608
aS'/v/fine-fir/106029322'
p609
aS'/v/dutch-treat/106029361'
p610
aS'/v/just-do-it/106029313'
p611
aS'/v/showtime/106029351'
p612
aS'/v/crackdown/106029331'
p613
aS'/v/before-the-deluge/106029327'
p614
aS'/v/storm-warning/106029336'
p615
aS'/v/the-b-boys/106029688'
p616
aS'/v/creekside-cruise/106038907'
p617
aS'/v/curtain-call/106054717'
p618
aS'/v/spirit-on-the-water/106028524'
p619
aS'/v/los-pinos-the-pines/106030088'
p620
aS'/v/local-hero/106029592'
p621
aS'/v/liquid-therapy/106034416'
p622
aS'/v/second-career/105815014'
p623
aS'/v/senior-discount/105794884'
p624
aS'/v/early-bird-special/105794887'
p625
aS'/v/fixed-income/105803070'
p626
aS'/v/depends/105794569'
p627
aS'/v/lost-dentures/105795238'
p628
aS'/v/grampas-day-out/105862674'
p629
aS'/v/sponge-bath/105794563'
p630
aS'/v/sundowning/105862679'
p631
aS'/v/devil-in-disguise/105887353'
p632
aS'/v/hip-replacement/105795241'
p633
aS'/v/angel-of-mercy/105794555'
p634
aS'/v/aricept/105800492'
p635
aS'/v/chimney/105809405'
p636
aS'/v/practical-joke/105763461'
p637
aS'/v/night-stalker/105763503'
p638
aS'/v/divine-wind/105758329'
p639
aS'/v/wild-cat/105761766'
p640
aS'/v/wounded-knee/105758335'
p641
aS'/v/bearcat-goes-to-hollywood/105758332'
p642
aS'/v/central-chimney/105755974'
p643
aS'/v/tempest/105759015'
p644
aS'/v/shimmer/105748301'
p645
aS'/v/simmer/105748304'
p646
aS'/v/on-ballet/105749191'
p647
aS'/v/bolt-cola/105748310'
p648
aS'/v/get-shorty/105758922'
p649
aS'/v/where-eagles-dare/105751390'
p650
aS'/v/october-surprise/105763437'
p651
aS'/v/slimmer/105761166'
p652
aS'/v/cold-fusion/105758641'
p653
aS'/v/ericksons-crack/106090166'
p654
aS'/v/charisma/105765015'
p655
aS'/v/decade-dance/105758320'
p656
aS'/v/respite/105758323'
p657
aS'/v/orange-crush/105763278'
p658
aS'/v/ginseng-rush/105758047'
p659
aS'/v/jolt-cola/105750694'
p660
aS'/v/hypertension/105761205'
p661
aS'/v/vasodilator/105750214'
p662
aS'/v/extreme/106227647'
p663
aS'/v/conan/105758650'
p664
aS'/v/erki-nool-wga/105759030'
p665
aS'/v/crack-tack/105748334'
p666
aS'/v/a-hike-with-ludwig-dude/105748343'
p667
aS'/v/out-of-limits/105756634'
p668
aS'/v/a-hike-for-y2k/105758053'
p669
aS'/v/the-young-and-the-rackless/105762150'
p670
aS'/v/dh1/105762552'
p671
aS'/v/nighthawk-/107558452'
p672
aS'/v/long-live-rock/105762705'
p673
aS'/v/schizofrantic/105762288'
p674
aS'/v/the-ticket/105756472'
p675
aS'/v/mile-high-comic-crack/105760881'
p676
aS'/v/two-minute-warning/105761760'
p677
aS'/v/take-five/105761694'
p678
aS'/v/lost-and-found/105761697'
p679
aS'/v/caffeine-buzz/105761433'
p680
aS'/v/smell-the-coffee/105758904'
p681
aS'/v/mr-sandman/105764985'
p682
aS'/v/bedtime-story/105756931'
p683
aS'/v/snooze-button/105756937'
p684
aS'/v/wake-up-call/105758901'
p685
aS'/v/chore-boy/105758940'
p686
aS'/v/the-daily-grind/105760599'
p687
aS'/v/my-buddy/105760620'
p688
aS'/v/napster/105758907'
p689
aS'/v/golden-slumber/105764982'
p690
aS'/v/sleepless-in-boulder/105756106'
p691
aS'/v/morpheus/105756400'
p692
aS'/v/tooth-fairy/105756427'
p693
aS'/v/the-bobsled/105755788'
p694
aS'/v/lucky-strikes/105755794'
p695
aS'/v/the-art-of-dreaming/105756103'
p696
aS'/v/war-on-freedom/106813728'
p697
aS'/v/plotinus/105760575'
p698
aS'/v/rama/105755818'
p699
aS'/v/the-scientist/105759351'
p700
aS'/v/i-have-a-dream/105760740'
p701
aS'/v/lucid-dreaming/105755821'
p702
aS'/v/sleep-deprivation/105758110'
p703
aS'/v/sominex/105755878'
p704
aS'/v/tooth-and-nail/105759354'
p705
aS'/v/counting-sheep/105755839'
p706
aS'/v/boulder-quartz-system/105755836'
p707
aS'/v/adams-arete/106339621'
p708
aS'/v/higher-rites/106140436'
p709
aS'/v/big-sky-corner/105757084'
p710
aS'/v/walpurgisnacht/106241101'
p711
aS'/v/fall-of-the-wall/105759732'
p712
aS'/v/waterboarding/106294161'
p713
aS'/v/interrogation/105760023'
p714
aS'/v/eastern-promises/106304393'
p715
aS'/v/left-side/105758209'
p716
aS'/v/the-slit/105763371'
p717
aS'/v/direct-cop-out/105764967'
p718
aS'/v/leader-of-the-pack/105756121'
p719
aS'/v/angle-of-repose/105757711'
p720
aS'/v/mordor/105759618'
p721
aS'/v/hoo-doggy/105758425'
p722
aS'/v/square-dance/105758428'
p723
aS'/v/ill-be-dipped/105758431'
p724
aS'/v/like-water-for-bob/105758434'
p725
aS'/v/boy-howdy/105859218'
p726
aS'/v/i-reckon/105760545'
p727
aS'/v/pup/105748313'
p728
aS'/v/get-smart/105763650'
p729
aS'/v/led-astray/105759009'
p730
aS'/v/cold-shot/105763041'
p731
aS'/v/cracking-the-code/105754996'
p732
aS'/v/crash-test-blondes/105749578'
p733
aS'/v/hot-flyer/105754036'
p734
aS'/v/just-a-little-insecure/105754957'
p735
aS'/v/plan-b/105749575'
p736
aS'/v/hot-wire/105761688'
p737
aS'/v/the-juice/105754015'
p738
aS'/v/security-risk/105751429'
p739
aS'/v/prism/105763674'
p740
aS'/v/scraping-by/105763680'
p741
aS'/v/men-are-from-mars/105763488'
p742
aS'/v/enema-of-the-people/105759078'
p743
aS'/v/cold-shot/105758964'
p744
aS'/v/gimme-3-steps/105761403'
p745
aS'/v/evolution/105765177'
p746
aS'/v/turmoil/105819280'
p747
aS'/v/lily-and-the-jack-of-hearts/105848073'
p748
aS'/v/chouette/105753814'
p749
aS'/v/monte-carlo/107011310'
p750
aS'/v/splash/105749938'
p751
aS'/v/topless-etiquette/105748256'
p752
aS'/v/abandonment/105753670'
p753
aS'/v/au-natural/105758916'
p754
aS'/v/bosch-blanket-bingo/105748232'
p755
aS'/v/infestation/106940855'
p756
aS'/v/new-lease-on-life/105748214'
p757
aS'/v/devins-dihedral/105748241'
p758
aS'/v/beach-bum/105822851'
p759
aS'/v/lease-agreement/105748211'
p760
aS'/v/birthday-suit/105748250'
p761
aS'/v/le-nouveau-riche/105748897'
p762
aS'/v/the-minstrel/105748223'
p763
aS'/v/sea-breeze/105748229'
p764
aS'/v/silver-glide/105748259'
p765
aS'/v/night-moves/106311078'
p766
aS'/v/sun-spot/106353563'
p767
aS'/v/loose-blocks-in-the-black-band/107592519'
p768
aS'/v/wheres-ray/105882601'
p769
aS'/v/dans-line/105933907'
p770
aS'/v/tool-king/105935178'
p771
aS'/v/trick-or-treat/106294434'
p772
aS'/v/group-therapy/106294459'
p773
aS'/v/its-time-for-change/106341750'
p774
aS'/v/left-handed-tool/106799068'
p775
aS'/v/bihedral/105756346'
p776
aS'/v/heterohedral/105759918'
p777
aS'/v/hold-the-line/105931317'
p778
aS'/v/diamonds-and-rust/106311070'
p779
aS'/v/dihedral-variation/105763917'
p780
aS'/v/flags-of-our-fathers/105882606'
p781
aS'/v/high-hard-one/106301291'
p782
aS'/v/bihedral-arete/105757414'
p783
aS'/v/puff-daddy/105933938'
p784
aS'/v/a-fly-in-the-ointment/106089997'
p785
aS'/v/rhodian-shores/105758116'
p786
aS'/v/daydreaming/107025357'
p787
aS'/v/fat-tuesday/106562457'
p788
aS'/v/blood-diamond/106561362'
p789
aS'/v/sands-of-iwo-jima/106039762'
p790
aS'/v/ahr/106069654'
p791
aS'/v/thumb-tack/105762354'
p792
aS'/v/edge-of-reality/105759912'
p793
aS'/v/most-of-the-time/105757450'
p794
aS'/v/calling-all-trad-climbers/105757438'
p795
aS'/v/dont-ask/105757447'
p796
aS'/v/whats-wrong-with-parents-today/105757432'
p797
aS'/v/slight-of-hand/106428433'
p798
aS'/v/quick-work/106700923'
p799
aS'/v/release-the-kraken/106699826'
p800
aS'/v/botonga/105759915'
p801
aS'/v/like-a-wonk/105947793'
p802
aS'/v/march-madness/106699787'
p803
aS'/v/git-er-done/106700919'
p804
aS'/v/beer-dog/105936819'
p805
aS'/v/hounds-tooth/105944966'
p806
aS'/v/canine-corner/105944970'
p807
aS'/v/wheres-ron/106705679'
p808
aS'/v/leave-no-trace/105952867'
p809
aS'/v/brace-for-impact/106651151'
p810
aS'/v/tinnitus/106689463'
p811
aS'/v/minutia/105869911'
p812
aS'/v/edges-and-ledges/105870616'
p813
aS'/v/boulder-slips/105868660'
p814
aS'/v/my-way/105870891'
p815
aS'/v/brand-new-bosch/105873216'
p816
aS'/v/party-time/105873860'
p817
aS'/v/minutia-arete/105878131'
p818
aS'/v/the-ride/105877444'
p819
aS'/v/colorado-senior-open/106005961'
p820
aS'/v/sunlight-arete/105883313'
p821
aS'/v/wheres-bob/105868666'
p822
aS'/v/independent/105981966'
p823
aS'/v/unknown/105981973'
p824
aS'/v/unknown-ii-aka-the-broken-wing/106424800'
p825
aS'/v/destroyer/105758353'
p826
aS'/v/neuromuscular-toxin/106160457'
p827
aS'/v/pooky-proof/105849567'
p828
aS'/v/mosquito-burrito/105748448'
p829
aS'/v/bowling-ball-and-chain/105752557'
p830
aS'/v/chihuahua-enchilada/105756862'
p831
aS'/v/frothing-green/105753601'
p832
aS'/v/oil-pan-hook-shot/105752554'
p833
aS'/v/bad-girls-get-spanked/105752563'
p834
aS'/v/midge-squadron/105764451'
p835
aS'/v/take-the-termites-bowling/105752287'
p836
aS'/v/lucky-strike/105759408'
p837
aS'/v/meteor-rhoadblock/105751531'
p838
aS'/v/next-to-nothing/105758056'
p839
aS'/v/amazing-face/105751528'
p840
aS'/v/shiny-dog/105752290'
p841
aS'/v/dry-run/105762981'
p842
aS'/v/splitting-hares/105760332'
p843
aS'/v/curb-service/105764409'
p844
aS'/v/fin/105756529'
p845
aS'/v/happy-ending/105762984'
p846
aS'/v/father-figure/105760224'
p847
aS'/v/shady-deal/105763194'
p848
aS'/v/centennial/105760278'
p849
aS'/v/just-like-nebraska/105760356'
p850
aS'/v/a-tall-cool-one/105748478'
p851
aS'/v/joe-pontiac/106828306'
p852
aS'/v/west-face/105750649'
p853
aS'/v/double-jeopardy/105750655'
p854
aS'/v/cosmosis/105750457'
p855
aS'/v/west-crack/105750652'
p856
aS'/v/gates-of-eden/105750658'
p857
aS'/v/hound-dog/105750661'
p858
aS'/v/saved-by-the-bell/105762240'
p859
aS'/v/bell-buster/106894795'
p860
aS'/v/bell-air/105763356'
p861
aS'/v/grand-inquisitor/105750697'
p862
aS'/v/arms-bazaar/105753568'
p863
aS'/v/the-spoils/106024720'
p864
aS'/v/the-purpose/106036023'
p865
aS'/v/beethovens-fifth/106213667'
p866
aS'/v/verve/105759741'
p867
aS'/v/nowhere-man/105759891'
p868
aS'/v/the-future-of-life/105759942'
p869
aS'/v/carrying-futons/105752995'
p870
aS'/v/the-war-on-peace/105752941'
p871
aS'/v/hambanger/105760764'
p872
aS'/v/bean-bagger/105832762'
p873
aS'/v/scorcher/106014130'
p874
aS'/v/mind-shaft-crack-right/107104135'
p875
aS'/v/mind-shaft-crack-middle/107685403'
p876
aS'/v/fionas-route/108182082'
p877
a.