(lp0
S'/v/southwest-face/105750976'
p1
aS'/v/east-face-north-side1st-flatiron/105765114'
p2
aS'/v/atalanta/105753979'
p3
aS'/v/east-face-gully/105753982'
p4
aS'/v/bakers-way/105754588'
p5
aS'/v/north-arete/105752794'
p6
aS'/v/fandango/105748508'
p7
aS'/v/direct-route/105748268'
p8
aS'/v/fandango-variation/105748511'
p9
aS'/v/hubris/105753700'
p10
aS'/v/butterfly/105753721'
p11
aS'/v/zig-zag/105751606'
p12
aS'/v/yellow-brick-road/105971796'
p13
aS'/v/kamikaze-overhangs/105753823'
p14
aS'/v/red-slab-variation/105761397'
p15
aS'/v/dumais-direct/106105696'
p16
aS'/v/east-face-standard/105748047'
p17
aS'/v/winky-woo/105750667'
p18
aS'/v/southwest-chimney/105751786'
p19
aS'/v/third-world-zone/106657244'
p20
aS'/v/east-face-left/105752749'
p21
aS'/v/1911-gully/105753544'
p22
aS'/v/south-chimney/105753622'
p23
aS'/v/extra-point/105749851'
p24
aS'/v/college-drop-out-aka-east-face-north-side/105748050'
p25
aS'/v/fridays-folly/105750460'
p26
aS'/v/fridays-folly-direct/105899946'
p27
aS'/v/saturdays-folly/105751153'
p28
aS'/v/phd-roof/105758161'
p29
aS'/v/blazing-biners/105760680'
p30
aS'/v/northwest-passage/105757558'
p31
aS'/v/sayonara/105763725'
p32
aS'/v/waiting-for-columbus/105763728'
p33
aS'/v/pentaprance/105761385'
p34
aS'/v/shoyu-state/105760677'
p35
aS'/v/direct-west-face-aka-western-skyline/106517646'
p36
aS'/v/green-sneak/105752617'
p37
aS'/v/takin-care-of-business-west-chimney/105752614'
p38
aS'/v/east-facegreen-mt-pinnacle/105752695'
p39
aS'/v/faith-and-resurrection/105838876'
p40
aS'/v/death-and-disfiguration/105763827'
p41
aS'/v/death-and-transfiguration/105750424'
p42
aS'/v/salsa-verde/105763821'
p43
aS'/v/transgression/105928778'
p44
aS'/v/smooth/105758518'
p45
aS'/v/hunka-hunka-burnin-love/105755677'
p46
aS'/v/velvet-elvis/105751474'
p47
aS'/v/slave-to-the-rhythm/106298924'
p48
aS'/v/sinatras-world/106529692'
p49
aS'/v/crescent/105754183'
p50
aS'/v/smoother/105753592'
p51
aS'/v/freeway/105752023'
p52
aS'/v/dodge-block/105752314'
p53
aS'/v/west-face-2nd-flatiron/105754537'
p54
aS'/v/south-sneak/105754543'
p55
aS'/v/free-for-all/105752308'
p56
aS'/v/dodge-block-variation-tunnel-route/107103070'
p57
aS'/v/south-east-aretesecond/105755725'
p58
aS'/v/north-crack/105758296'
p59
aS'/v/east-facequeen-annes-head/105752254'
p60
aS'/v/a-very-aments-slab/105752305'
p61
aS'/v/swing-time/105752608'
p62
aS'/v/east-ridge/105752632'
p63
aS'/v/east-facechallenger/105752620'
p64
aS'/v/sight-flight/105754162'
p65
aS'/v/north-ridge/105754150'
p66
aS'/v/east-facegreen-thumb/105754900'
p67
aS'/v/green-crack/105754903'
p68
aS'/v/green-corner/105754894'
p69
aS'/v/diagonal-finger-crack/105754897'
p70
aS'/v/far-niente/106301795'
p71
aS'/v/the-east-face/105843132'
p72
aS'/v/south-ridge-better-known-as-chase-the-sun/105756631'
p73
aS'/v/pack-rat/105755749'
p74
aS'/v/disinclination/106849238'
p75
aS'/v/left-arete/105762510'
p76
aS'/v/non-friction/105755779'
p77
aS'/v/the-middle-way/105755782'
p78
aS'/v/diatribe/105755791'
p79
aS'/v/south-arete/105756739'
p80
aS'/v/east-facefirst-flatironette/105758539'
p81
aS'/v/2nd-pinnacle-nw-corner/105751903'
p82
aS'/v/west-bench-dihedral/105758098'
p83
aS'/v/standard-inside-east-face/106653684'
p84
aS'/v/east-bench-dihedral/105751891'
p85
aS'/v/second-pinnacle-south-face/105751906'
p86
aS'/v/se-face-aka-southeast-arete-first-pinnacle/105751894'
p87
aS'/v/northeast-chimney/105763302'
p88
aS'/v/the-inset/106559867'
p89
aS'/v/t-zero-west-face-aka-finger-crack/105751897'
p90
aS'/v/south-rib-2nd-pinnacle/105760368'
p91
aS'/v/macropsychotic/105842889'
p92
aS'/v/slot-formerly-listed-at-direct-west-bench/105751900'
p93
aS'/v/direct-west-bench-formerly-listed-as-variation/105752344'
p94
aS'/v/inside-s-face-1st-pinnacle/105758536'
p95
aS'/v/red-wall-aka-raptors-in-cellophane/105748514'
p96
aS'/v/siberian-north-face/105751432'
p97
aS'/v/halls-of-ivy/105754207'
p98
aS'/v/thin-crack/105760557'
p99
aS'/v/wide-crack/105763311'
p100
aS'/v/south-ridge/105754210'
p101
aS'/v/trident/105760554'
p102
aS'/v/halls-of-poison-ivy/105756088'
p103
aS'/v/east-face4th-pinnacle/105756085'
p104
aS'/v/north-ridgegregory-flatironette/105756130'
p105
aS'/v/east-chimney-upper-deviation/106267024'
p106
aS'/v/sunny-side-two/105754471'
p107
aS'/v/west-face-der-zerkle/105754789'
p108
aS'/v/east-face-left-side/105752653'
p109
aS'/v/what-if-youre-not/105748618'
p110
aS'/v/east-face-rightder-zerkle/105748624'
p111
aS'/v/der-fuhrer/105748615'
p112
aS'/v/final-solution/105752710'
p113
aS'/v/ribspuren/105758032'
p114
aS'/v/bar-none/105763122'
p115
aS'/v/feeling-lucky/107528888'
p116
aS'/v/wing-ding/105748621'
p117
aS'/v/happy-ending/105758023'
p118
aS'/v/knot-carrot/105755620'
p119
aS'/v/touch-monkey/105755617'
p120
aS'/v/april-fools/105761643'
p121
aS'/v/hot-if-youre-not-aka-the-brown-eye-wall/105751339'
p122
aS'/v/absolution/105763125'
p123
aS'/v/nw-corner--square-rock/105758931'
p124
aS'/v/flake/105761544'
p125
aS'/v/crack/105761541'
p126
aS'/v/yellow-christ/105748630'
p127
aS'/v/android-power-pack/105753466'
p128
aS'/v/hatch/105748753'
p129
aS'/v/sneak-preview/105749656'
p130
aS'/v/east-faceachean-pronouncement/105752968'
p131
aS'/v/thought-control/105749641'
p132
aS'/v/quadratic-equation/105749842'
p133
aS'/v/east-face-centerhillbilly/105756982'
p134
aS'/v/billy-goat-arete/105756415'
p135
aS'/v/east-face-south-sidehillbilly/105756976'
p136
aS'/v/north-face/105756418'
p137
aS'/v/east-face-center/105751699'
p138
aS'/v/east-face-south-sidefront-porch/105756457'
p139
aS'/v/tiptoe-slab/105750784'
p140
aS'/v/northeast-ridge/105755140'
p141
aS'/v/fi-fun/105751501'
p142
aS'/v/south-ridge/105755176'
p143
aS'/v/east-face--der-freischutz/105758925'
p144
aS'/v/free-shot/105754468'
p145
aS'/v/bidoigt/105751330'
p146
aS'/v/drugs/105751327'
p147
aS'/v/street-hassle/105751336'
p148
aS'/v/east-facehand/105754147'
p149
aS'/v/new-saigon/105822978'
p150
aS'/v/quest-for-balance/105759981'
p151
aS'/v/cardboard-cowboy/106189033'
p152
aS'/v/back-in-slacks/105755614'
p153
aS'/v/power-bulge/105754801'
p154
aS'/v/cat-scratches/105757030'
p155
aS'/v/east-face-north-side/105755965'
p156
aS'/v/east-face-south-side-or-left/105752398'
p157
aS'/v/northeast-face/105756304'
p158
aS'/v/east-facehippo-head/105754213'
p159
aS'/v/east-facefinger-flatiron/105755137'
p160
aS'/v/east-face-rightfinger-flatiron/105759315'
p161
aS'/v/south-face/105753094'
p162
aS'/v/berserker/105753088'
p163
aS'/v/east-face-rightred-devil/105765111'
p164
aS'/v/paradise-lost/105999884'
p165
aS'/v/hell-freezes-over/105762867'
p166
aS'/v/north-side/105753247'
p167
aS'/v/south-side/105753250'
p168
aS'/v/east-face-rightfum/105757225'
p169
aS'/v/east-face-south-side/105753922'
p170
aS'/v/east-facedreadnaught/105753928'
p171
aS'/v/primal-rib/105753925'
p172
aS'/v/east-faceanomaly/105765105'
p173
aS'/v/buckets/105754255'
p174
aS'/v/yodeling-moves/105754267'
p175
aS'/v/east-faceoverture/105754528'
p176
aS'/v/south-ridge--overture/105758928'
p177
aS'/v/west-face-dinosaur-rock/105756133'
p178
aS'/v/east-facedinosaur-rock/105754915'
p179
aS'/v/rug-munchers/105828725'
p180
aS'/v/east-face-rightdinosaur-rock/105762027'
p181
aS'/v/big-bob-cranks/105762033'
p182
aS'/v/tracks-are-for-kids/105762030'
p183
aS'/v/triceratops-tracks/105762036'
p184
aS'/v/pretty-in-pinkler/106207697'
p185
aS'/v/patience-face/106207663'
p186
aS'/v/the-shaft/106207686'
p187
aS'/v/milk-bone/106207680'
p188
aS'/v/ultrasaurus-aka-uber-pwnage/106566444'
p189
aS'/v/jurassic-park/108933364'
p190
aS'/v/rehatch/105755629'
p191
aS'/v/south-ridge/105755671'
p192
aS'/v/el-camino-royale/105755710'
p193
aS'/v/east-faceroyal-arch/105755713'
p194
aS'/v/west-ridge/105756688'
p195
aS'/v/east-face-and-south-ridge/105755023'
p196
aS'/v/southeast-ridge/105756463'
p197
aS'/v/south-east-ridgetwo-move-rock/105756439'
p198
aS'/v/east-face-north-side/106169029'
p199
aS'/v/east-face4th-flatiron/105757012'
p200
aS'/v/south-east-ridgeunicorn/105756442'
p201
aS'/v/north-nostril/105756628'
p202
aS'/v/east-facedum/105756757'
p203
aS'/v/hand-crack/105759597'
p204
aS'/v/stone-love/105763761'
p205
aS'/v/discipline/105761847'
p206
aS'/v/cornucopia/105812344'
p207
aS'/v/east-faceback-porch/105750823'
p208
aS'/v/in-focus/105759051'
p209
aS'/v/hot-spit/105761640'
p210
aS'/v/east-face/106034434'
p211
aS'/v/stairway-to-heaven/105756502'
p212
aS'/v/love/105751504'
p213
aS'/v/better-than-love/105756523'
p214
aS'/v/armed-forces/106055494'
p215
aS'/v/the-guardian/106259639'
p216
aS'/v/purgatory/105754819'
p217
aS'/v/satans-slab/105752680'
p218
aS'/v/burger-madness/105759177'
p219
aS'/v/angels-way/105758545'
p220
aS'/v/mohling-arete/105758623'
p221
aS'/v/the-north-ridge/107849898'
p222
aS'/v/megasaurus/106490054'
p223
aS'/v/east-face--goose/105758820'
p224
aS'/v/mother-goose/105763248'
p225
aS'/v/deserted-cities-of-the-heart/105748756'
p226
aS'/v/loves-labor-lost/105748759'
p227
aS'/v/batman/105861028'
p228
aS'/v/raging-bull-aka-cub/106047110'
p229
aS'/v/east-ridge/105749164'
p230
aS'/v/north-face/105749161'
p231
aS'/v/south-face/105751297'
p232
aS'/v/west-face/105754780'
p233
aS'/v/father-knows-best/105761283'
p234
aS'/v/north-face/105750454'
p235
aS'/v/south-face/105751300'
p236
aS'/v/east-ridge/105753004'
p237
aS'/v/gates-of-galas/105756505'
p238
aS'/v/west-overhang/105752212'
p239
aS'/v/cunning-stunt/105829989'
p240
aS'/v/dream-street-rose/105761922'
p241
aS'/v/south-crack/105761919'
p242
aS'/v/hasta-la-hueco/108073893'
p243
aS'/v/east-faceoverhang-rock/105756589'
p244
aS'/v/junior-achievement/105756610'
p245
aS'/v/west-side-story/105762291'
p246
aS'/v/rogues-arete/105751279'
p247
aS'/v/short-attention-span/105751414'
p248
aS'/v/tits-out-for-the-lads/105750676'
p249
aS'/v/the-big-picture/105750679'
p250
aS'/v/ouroboros/109811789'
p251
aS'/v/snake-watching/105762771'
p252
aS'/v/honey-badger/108147855'
p253
aS'/v/left-side/105764994'
p254
aS'/v/toponas/105751441'
p255
aS'/v/shortcut-east-face/105751633'
p256
aS'/v/east-face-north-sideseal-rock/105751645'
p257
aS'/v/east-face-south-side/105751648'
p258
aS'/v/sea-of-joy/105762372'
p259
aS'/v/choose-life/105760953'
p260
aS'/v/thunder-muscle/108178445'
p261
aS'/v/diagonal/105755899'
p262
aS'/v/syzygy/105755902'
p263
aS'/v/left-n-up/105755905'
p264
aS'/v/bulges/105759828'
p265
aS'/v/northeast-arete/105756877'
p266
aS'/v/hippopotamus/107204916'
p267
aS'/v/sick-for-sleeping/108081842'
p268
aS'/v/just-another-boys-climb/105761499'
p269
aS'/v/whipping-post/105763689'
p270
aS'/v/family-man/106196513'
p271
aS'/v/shalohsh/106447491'
p272
aS'/v/undertow/105752323'
p273
aS'/v/boys-with-power-toys/105752425'
p274
aS'/v/prime-the-pump/107735680'
p275
aS'/v/k00keez-and-kreem/106447808'
p276
aS'/v/film-noir/107190078'
p277
aS'/v/sweet-niblitz/106297660'
p278
aS'/v/00pr-kr33m/107177226'
p279
aS'/v/s00kr33m/106303627'
p280
aS'/v/pen-15/107178024'
p281
aS'/v/southeast-ridge/105752566'
p282
aS'/v/south-face/105752395'
p283
aS'/v/beau/105759396'
p284
aS'/v/east-facefatiron/105752692'
p285
aS'/v/north-wing-center/105839219'
p286
aS'/v/west-ridge/105756010'
p287
aS'/v/east-facetiny-tower/105756007'
p288
aS'/v/east-face-complete/105760362'
p289
aS'/v/alan-nelsons-bulging-belly/105763362'
p290
aS'/v/east-facepellea/105750997'
p291
aS'/v/east-faceonoclea/105751933'
p292
aS'/v/east-facefiddle-head/105752209'
p293
aS'/v/irish-spring/105879977'
p294
aS'/v/leprechaun-promenade/105754726'
p295
aS'/v/a-shadow-sickness/105762765'
p296
aS'/v/lucky-charms-aka-rip-this-joint/105753127'
p297
aS'/v/chains-of-love/105753145'
p298
aS'/v/rads-for-rookies/105753481'
p299
aS'/v/rainbow-bridge/105752755'
p300
aS'/v/false-gods-real-men/105753484'
p301
aS'/v/east-faces-goose-egg/105753061'
p302
aS'/v/south-ramp/105754069'
p303
aS'/v/fruity-pebbles/105759174'
p304
aS'/v/power-bacon/105752752'
p305
aS'/v/the-sea-and-mirror/105753478'
p306
aS'/v/the-knack/105753040'
p307
aS'/v/fountain-of-youth/105753907'
p308
aS'/v/edgemaster/105758856'
p309
aS'/v/everpresent-lane/105762768'
p310
aS'/v/iron-cross/106317672'
p311
aS'/v/fluorescent-gray/105761700'
p312
aS'/v/superfresh/105754075'
p313
aS'/v/perfect-hand-crack/105751930'
p314
a.