(lp0
S'/v/bad-faith/105741290'
p1
aS'/v/butterfingers/107744894'
p2
aS'/v/caress-of-steel/105739949'
p3
aS'/v/drunken-midget/105844347'
p4
aS'/v/drop-zone/107744446'
p5
aS'/v/kitchen-sink/107309178'
p6
aS'/v/rincon/107714676'
p7
aS'/v/steel-monkey/106017395'
p8
aS'/v/andys-route/107309168'
p9
aS'/v/riptide/105836694'
p10
aS'/v/on-there/106492401'
p11
aS'/v/license-to-thrill/105739946'
p12
aS'/v/little-big-wall/106917974'
p13
aS'/v/route-66/105739952'
p14
aS'/v/mandela/105836690'
p15
aS'/v/26/107719904'
p16
aS'/v/physical-therapy/105741701'
p17
aS'/v/black-hole/105741698'
p18
aS'/v/les-is-more/105971842'
p19
aS'/v/teenagers-in-heat/106030797'
p20
aS'/v/remote-control/105739961'
p21
aS'/v/deep-end/105992225'
p22
aS'/v/pocket-change/106060445'
p23
aS'/v/quicklime-girl/106267817'
p24
aS'/v/running-woman/106386712'
p25
aS'/v/the-atheist/105739964'
p26
aS'/v/rush-hour/105741959'
p27
aS'/v/39/105984801'
p28
aS'/v/baghdad/106019299'
p29
aS'/v/shallow-beginning/106267782'
p30
aS'/v/blurred-vision/106283155'
p31
aS'/v/litmus-test/106043413'
p32
aS'/v/nowhere-to-go/106060429'
p33
aS'/v/division/105741254'
p34
aS'/v/total-recall/106056195'
p35
aS'/v/struggling-man/105741257'
p36
aS'/v/liquid-oxygen/106203383'
p37
aS'/v/shark-club/106281936'
p38
aS'/v/isotoner-moaner/105739958'
p39
aS'/v/secret-weapon/109099165'
p40
aS'/v/the-abyss/106122847'
p41
aS'/v/needles-and-pins/107307889'
p42
aS'/v/kronk/107307900'
p43
aS'/v/orogeny/107307876'
p44
aS'/v/helix/105741944'
p45
aS'/v/problem-child/105741953'
p46
aS'/v/black-magic/106772092'
p47
aS'/v/twist-and-shout/105741323'
p48
aS'/v/awakening/105741335'
p49
aS'/v/no-escaping-death/105741962'
p50
aS'/v/middle-class-socialist-brat/107648212'
p51
aS'/v/jug-for-joy/105741083'
p52
aS'/v/steel-graffiti/105847408'
p53
aS'/v/presidents-day/106061625'
p54
aS'/v/motherload/106009113'
p55
aS'/v/denied/105999582'
p56
aS'/v/monkey-meet/105741086'
p57
aS'/v/inside-information/105741332'
p58
aS'/v/body-bag/105741326'
p59
aS'/v/dead-on-arrival/106009030'
p60
aS'/v/rock-requiem/106061640'
p61
aS'/v/the-edge-of-chaos/106128914'
p62
aS'/v/kill-your-lawyer/106159606'
p63
aS'/v/virtual-reality/107528959'
p64
aS'/v/naked-nebula/105741125'
p65
aS'/v/knuckle-up/106600002'
p66
aS'/v/unknown-56/106809263'
p67
aS'/v/late-for-dinner/107647762'
p68
aS'/v/rockapella/105741968'
p69
aS'/v/stoic-calculus/105741971'
p70
aS'/v/gas-boost/105817604'
p71
aS'/v/stump/105885695'
p72
aS'/v/vaporous-apparition/105741350'
p73
aS'/v/unknown-right/105838776'
p74
aS'/v/unknown-left/105841604'
p75
aS'/v/unknown-59/106015977'
p76
aS'/v/platinum-blonde/105742064'
p77
aS'/v/punch-the-clock/105866263'
p78
aS'/v/many-options/105885699'
p79
aS'/v/winds-of-fire/106003242'
p80
aS'/v/unknown-510a/106015991'
p81
aS'/v/emotional-geometry/106955599'
p82
aS'/v/born-again/107826594'
p83
aS'/v/treehugger/105837747'
p84
aS'/v/unknown-510c/106018717'
p85
aS'/v/firstborn/106050295'
p86
aS'/v/unknown-510/107306550'
p87
aS'/v/primal-magic/105837860'
p88
aS'/v/eight-to-eleven/105741965'
p89
aS'/v/suicide-blonde/105837850'
p90
aS'/v/juggernaut/105837865'
p91
aS'/v/cyberlag/108309654'
p92
aS'/v/teeanova/106194324'
p93
aS'/v/beehive/106230695'
p94
aS'/v/juggernaut-roof/105837872'
p95
aS'/v/melting/106516421'
p96
aS'/v/burning/106516064'
p97
aS'/v/time-crunch/106195315'
p98
aS'/v/childs-play/105742163'
p99
aS'/v/blood-on-the-rocks/106049264'
p100
aS'/v/cranial-bypass/106544069'
p101
aS'/v/cranial-impact/106056211'
p102
aS'/v/three-amigos/106193647'
p103
aS'/v/cannabis-crack/106193660'
p104
aS'/v/scooby-snack/106812458'
p105
aS'/v/electric-company/106473854'
p106
aS'/v/sesame-street/106473897'
p107
aS'/v/downtown-brown-/109223956'
p108
aS'/v/mission-control/106473947'
p109
aS'/v/field-of-screams/106490966'
p110
aS'/v/merciless-onslaught/106516663'
p111
aS'/v/teardrop/106574005'
p112
aS'/v/underdog/106918003'
p113
aS'/v/jug-abuse/106517580'
p114
aS'/v/exile/108295807'
p115
aS'/v/wilderness/106518121'
p116
aS'/v/isolation/106518115'
p117
aS'/v/patty-baby/105836722'
p118
aS'/v/pig-pen/106425103'
p119
aS'/v/woodstock/107683393'
p120
aS'/v/domestic-tension/106008038'
p121
aS'/v/barnacle/106250371'
p122
aS'/v/billy-goats-gruff/106708164'
p123
aS'/v/fire-woman/106008042'
p124
aS'/v/sun-king/106411707'
p125
aS'/v/matilda/106009756'
p126
aS'/v/step-right-up/106056175'
p127
aS'/v/old-feller/107719927'
p128
aS'/v/heck/107719622'
p129
aS'/v/half-acre/105741746'
p130
aS'/v/el-diablo/105741974'
p131
aS'/v/malvado/105741260'
p132
aS'/v/necromancer/106018707'
p133
aS'/v/harder-faster/106018712'
p134
aS'/v/hornets-nest/106481519'
p135
aS'/v/odouls/105958754'
p136
aS'/v/sam-adams/106481509'
p137
aS'/v/high-life/106955695'
p138
aS'/v/corona/106481514'
p139
aS'/v/pbr/106955706'
p140
aS'/v/boy-wonder/106203075'
p141
aS'/v/tom-slick/106869275'
p142
aS'/v/wasp-stop/107278026'
p143
aS'/v/mind-stream/107209348'
p144
aS'/v/twisted-memories/107309150'
p145
aS'/v/the-bleaker/107205840'
p146
aS'/v/bumblies-in-the-dark/107754871'
p147
aS'/v/long-shadows/106059734'
p148
aS'/v/credibility-check/107692201'
p149
aS'/v/your-onus/107209369'
p150
aS'/v/the-flopper/107144991'
p151
aS'/v/small-fry/106206796'
p152
aS'/v/half-pint/106206806'
p153
aS'/v/bug-bananas/106492417'
p154
aS'/v/warthog/106492936'
p155
aS'/v/tanks-for-nothing/106496085'
p156
aS'/v/barbie-twins/106492437'
p157
aS'/v/eye-opener/106492432'
p158
aS'/v/tank-trap/106496009'
p159
aS'/v/dag-nasty/106492441'
p160
aS'/v/gemini/106496005'
p161
aS'/v/drop-the-clutch/106502139'
p162
aS'/v/dag-nasty-part-deux/106908335'
p163
aS'/v/no-remorse/106886892'
p164
aS'/v/the-milkmaid/106886896'
p165
aS'/v/foreplay/106517457'
p166
aS'/v/protozoa/106517576'
p167
aS'/v/cosmic-imperative/106906159'
p168
aS'/v/the-beckoning-call/106517461'
p169
aS'/v/gordons-linkup/106517491'
p170
aS'/v/bringer-of-light/106517496'
p171
aS'/v/the-tuba/106517445'
p172
aS'/v/kodak-courage/106517451'
p173
aS'/v/if-i-only-had-a-brain/106517571'
p174
aS'/v/princess-di/106517469'
p175
aS'/v/40-oz-to-freedom/106530742'
p176
aS'/v/48/106530764'
p177
aS'/v/ivy-mike/106530769'
p178
aS'/v/unknown-2/107720422'
p179
aS'/v/unknown/107720397'
p180
aS'/v/romeos-bleeding/106518784'
p181
aS'/v/reaching-for-razors/106518812'
p182
aS'/v/the-blight/106518800'
p183
aS'/v/hell/106518756'
p184
aS'/v/blue-falcon/107722739'
p185
aS'/v/cyberslit/106951075'
p186
aS'/v/bolting-blues/107722747'
p187
aS'/v/under-the-knife/106957951'
p188
aS'/v/diminished-capacity/106951086'
p189
aS'/v/cortical-suppression/106955054'
p190
aS'/v/code-blue/106955044'
p191
aS'/v/too-young-to-be-human/106970938'
p192
aS'/v/syllogism/108098459'
p193
aS'/v/buff-puff/107408085'
p194
aS'/v/wall-of-shame/107408075'
p195
aS'/v/more-of-the-shame/107408079'
p196
aS'/v/unknown-2/107551346'
p197
aS'/v/shame-is-a-game/107408071'
p198
aS'/v/the-taken/107436847'
p199
aS'/v/drop-anchor/107582956'
p200
aS'/v/tuna-melt/107775202'
p201
aS'/v/voltaire/107587109'
p202
aS'/v/serpentine/107587101'
p203
aS'/v/leapin-lizards/107618877'
p204
aS'/v/persona-non-grata/107618906'
p205
aS'/v/touch-of-grey/107619173'
p206
aS'/v/small-change/105741950'
p207
aS'/v/erection-or-ejection/105739970'
p208
aS'/v/music-for-chameleons/106564686'
p209
aS'/v/death-of-a-sailsman/105741947'
p210
aS'/v/american-flyers/106822816'
p211
aS'/v/beeline/105741023'
p212
aS'/v/to-hell-on-a-rocket/105741251'
p213
aS'/v/this-must-be-the-pickle/105741956'
p214
aS'/v/scoliosis/107869944'
p215
aS'/v/book-of-condolences/108235775'
p216
aS'/v/pocket-debris/108278513'
p217
aS'/v/algorithm/109071600'
p218
aS'/v/pocket-rhythm/109316532'
p219
aS'/v/hands-of-blue/108326292'
p220
aS'/v/carry-the-nothin/108326274'
p221
aS'/v/shiny/108326280'
p222
aS'/v/stone-cold-xiaosho/108326284'
p223
aS'/v/two-by-two/108326288'
p224
aS'/v/shindig/108326358'
p225
aS'/v/the-companion/108326409'
p226
aS'/v/jubal/108326311'
p227
aS'/v/out-of-gas/108326353'
p228
aS'/v/out-to-the-black/108326364'
p229
aS'/v/black-market-beagles/108326370'
p230
aS'/v/bushwhacked/108326404'
p231
aS'/v/sudden-yet-inevitable-betrayal/108326374'
p232
aS'/v/browncoat/108326379'
p233
aS'/v/damage-my-calm/108326326'
p234
aS'/v/firefly/108326384'
p235
aS'/v/captain-hammer/108326336'
p236
aS'/v/canceled/108326305'
p237
aS'/v/captain-mal/108326331'
p238
aS'/v/oh-captain-my-captain/108326344'
p239
aS'/v/the-alliance/108326391'
p240
aS'/v/captain-tight-pants/108326348'
p241
aS'/v/shoot-em-politely/108326427'
p242
aS'/v/terraformed/108326451'
p243
aS'/v/our-mrs-reynolds/108326441'
p244
aS'/v/reaver/108326433'
p245
aS'/v/hero-of-canton/108326446'
p246
a.