(lp0
S'/v/tad/105714794'
p1
aS'/v/roach-addition/105715613'
p2
aS'/v/bon-homme-variation/105714902'
p3
aS'/v/el-cracko-diablo/105715556'
p4
aS'/v/soler/105714830'
p5
aS'/v/best-crack-in-minnesota/105715541'
p6
aS'/v/walt-bailey/105715550'
p7
aS'/v/hollywood--vine/105714788'
p8
aS'/v/dusk-in-dogtown/105715094'
p9
aS'/v/double-indemnity/107178574'
p10
aS'/v/direct-southeast/107182908'
p11
aS'/v/bowling-alley--aka-durrance-approach-route/106123012'
p12
aS'/v/durrance/105714812'
p13
aS'/v/sundance/105877545'
p14
aS'/v/wiessner/106147442'
p15
aS'/v/pseudo--wiessner/105877534'
p16
aS'/v/liken-lichen/105813895'
p17
aS'/v/manifest-destiny/105874495'
p18
aS'/v/rangers-are-people-too/105715190'
p19
aS'/v/potc/105874485'
p20
aS'/v/direct-southwest/105715187'
p21
aS'/v/lovely-liana/105874501'
p22
aS'/v/black-jones-direct/106444820'
p23
aS'/v/patent-pending/105714821'
p24
aS'/v/assembly-line/105715028'
p25
aS'/v/gooseberry-jam/105926957'
p26
aS'/v/new-wave/105715082'
p27
aS'/v/broken-tree/105715166'
p28
aS'/v/belle-fourche-buttress/105715499'
p29
aS'/v/burning-daylight/105715505'
p30
aS'/v/witchie/107258033'
p31
aS'/v/back-to-montana/105715088'
p32
aS'/v/casper-college/105715508'
p33
aS'/v/everlasting/105813870'
p34
aS'/v/tulgey-wood/105714953'
p35
aS'/v/fractal/105813892'
p36
aS'/v/mccarthy-west-face-variant/105715091'
p37
aS'/v/jerrys-kids/105856167'
p38
aS'/v/up-in-smoke/106028928'
p39
aS'/v/one-way-sunset/105715184'
p40
aS'/v/el-matador/105714944'
p41
aS'/v/spank-the-monkey/105819539'
p42
aS'/v/carols-crack/105715181'
p43
aS'/v/way-layed/105715502'
p44
aS'/v/mr-clean/105715574'
p45
aS'/v/california-dreaming/105858062'
p46
aS'/v/dead-point/106185180'
p47
aS'/v/mccarthy-west-facehong/105715583'
p48
aS'/v/bloodguard/105715685'
p49
aS'/v/avalon/105715577'
p50
aS'/v/a-bridge-too-far/106469998'
p51
aS'/v/digital-extraction/106608140'
p52
aS'/v/deli-express/107182839'
p53
aS'/v/brokedown-palace/105715520'
p54
aS'/v/billie-bear-cranks-the-rad/107169409'
p55
aS'/v/mystic-and-the-mulchers/105715586'
p56
aS'/v/klondike/105715085'
p57
aS'/v/leaping-lizards/105813900'
p58
aS'/v/mccarthys-north-face/105715019'
p59
aS'/v/psychic-turbulance/105715040'
p60
aS'/v/california-dreaming/105715754'
p61
aS'/v/fourplay/105715343'
p62
aS'/v/spiney-norman/105715427'
p63
aS'/v/warm-up-too/105871498'
p64
aS'/v/jet-stream/105764193'
p65
aS'/v/eo-lieback/105750946'
p66
aS'/v/hole/105751852'
p67
aS'/v/easy-overhang-traverse/105961848'
p68
aS'/v/upper-fall-wall-route/105961862'
p69
aS'/v/511-crack/105750943'
p70
aS'/v/fall-wall-the-route/105752113'
p71
aS'/v/neon-madman/105838410'
p72
aS'/v/spider-god/105757891'
p73
aS'/v/little-old-crack-aka-boulder-hop/105757054'
p74
aS'/v/kim/105751018'
p75
aS'/v/sugar-crack/105754645'
p76
aS'/v/stem-christie/106875244'
p77
aS'/v/fantasia/105753475'
p78
aS'/v/petit-crapon/105757057'
p79
aS'/v/boulder-hopper/105757180'
p80
aS'/v/overload/105762246'
p81
aS'/v/ape-walk/105764157'
p82
aS'/v/skull/105752200'
p83
aS'/v/tanfasia/106166049'
p84
aS'/v/orbital-ridge/105757570'
p85
aS'/v/cool-jet/105762141'
p86
aS'/v/walts-wall/105751003'
p87
aS'/v/foolishness/105751006'
p88
aS'/v/edwards-crack/105751021'
p89
aS'/v/friction-slide/105762492'
p90
aS'/v/satterfields-crack/105751159'
p91
aS'/v/in-through-the-out-door-formerly-entered-as-water-streak-ii/105760797'
p92
aS'/v/fourth-of-july-crack-hard-promises/105751870'
p93
aS'/v/powder-puff/105977056'
p94
aS'/v/soft-touch/105751204'
p95
aS'/v/sunny-day/105977043'
p96
aS'/v/bill-steal/105762618'
p97
aS'/v/screw/105751207'
p98
aS'/v/ladder/105762615'
p99
aS'/v/nail/106484343'
p100
aS'/v/zipper/105756385'
p101
aS'/v/hammer/105764052'
p102
aS'/v/quits/105752296'
p103
aS'/v/tool-or-die/105757183'
p104
aS'/v/monkey-wrench/105757540'
p105
aS'/v/hair-of-the-dog/105825652'
p106
aS'/v/hooker/105752302'
p107
aS'/v/easy-jam/105751825'
p108
aS'/v/baldwins-chimney/105751828'
p109
aS'/v/right-parallel-space/105751831'
p110
aS'/v/cornelius/105757021'
p111
aS'/v/straight-4-ward/106173018'
p112
aS'/v/stinkzig/105751510'
p113
aS'/v/piton-perch/105751807'
p114
aS'/v/horticulture/105752098'
p115
aS'/v/old-eyeful/105757213'
p116
aS'/v/slit/105751837'
p117
aS'/v/candlestick/105751846'
p118
aS'/v/slut/105756961'
p119
aS'/v/teds-trot/105757027'
p120
aS'/v/slat/105764391'
p121
aS'/v/lower-slot-left/108317213'
p122
aS'/v/mother-1/105751369'
p123
aS'/v/handjacker/105751843'
p124
aS'/v/lower-slot-and-upper-slot/105751849'
p125
aS'/v/ttl/105763056'
p126
aS'/v/par-four/105818192'
p127
aS'/v/humper/106197783'
p128
aS'/v/knothole/106451950'
p129
aS'/v/hemoglobin/106503675'
p130
aS'/v/dual/106166617'
p131
aS'/v/finally/105751387'
p132
aS'/v/baalbek/105751798'
p133
aS'/v/middle-parallel-space/105752155'
p134
aS'/v/deception/105760497'
p135
aS'/v/jim-jam/105995847'
p136
aS'/v/bombs-away-aka-b52/106148141'
p137
aS'/v/lower-progressive/105751375'
p138
aS'/v/hairlip/105760194'
p139
aS'/v/vulture-direct/105762666'
p140
aS'/v/elevator/105817917'
p141
aS'/v/upper-progressive/105995354'
p142
aS'/v/cannonball/105995843'
p143
aS'/v/deep-throat/106148101'
p144
aS'/v/knee-grinder/106494945'
p145
aS'/v/failure-to-communicate/105981811'
p146
aS'/v/in-the-groove/105954175'
p147
aS'/v/flying-buttress/105752740'
p148
aS'/v/escalator/106019454'
p149
aS'/v/upper-slot-left/106194414'
p150
aS'/v/bat-heaven/105761055'
p151
aS'/v/left-torpedo-tube/105751705'
p152
aS'/v/the-grand-traverse/105751804'
p153
aS'/v/captain-nemo/105764748'
p154
aS'/v/maxilash/105751738'
p155
aS'/v/nitrogen-narcosis/105757849'
p156
aS'/v/flare-thee-well/105761289'
p157
aS'/v/cool-hand-luke/105764298'
p158
aS'/v/father-1/106793181'
p159
aS'/v/bat-guano-crack-mistakenly-aka-b-g-crack/106175591'
p160
aS'/v/hesitation-blues/105752149'
p161
aS'/v/war-zone/105752152'
p162
aS'/v/right-torpedo-tube/105751711'
p163
aS'/v/ghost-dance/105751780'
p164
aS'/v/october-light/105762603'
p165
aS'/v/max-factor/105751717'
p166
aS'/v/friday-the-13th/105751792'
p167
aS'/v/crankenstein/105814034'
p168
aS'/v/automotive-supply-house/105752944'
p169
aS'/v/bug-squad/105751735'
p170
aS'/v/journey-to-coramonde-aka-anita/105751522'
p171
aS'/v/hasslers-hatbox-route/105755356'
p172
aS'/v/cats-cradle/105752089'
p173
aS'/v/ruffis/105760794'
p174
aS'/v/mrc-direct/105751435'
p175
aS'/v/straight-edge/105844331'
p176
aS'/v/classic-splitter/105971762'
p177
aS'/v/northeast-cutoff/105752158'
p178
aS'/v/kitchens-delight-2/105752179'
p179
aS'/v/strawberry-jam/105752185'
p180
aS'/v/grunt-lieback/105757186'
p181
aS'/v/oslunds-delight/105752239'
p182
aS'/v/narrow-and-ugly/106182436'
p183
aS'/v/silver-surfer/105760914'
p184
aS'/v/19th-nervous-breakdown/106177069'
p185
aS'/v/curreys-diagonal/105752236'
p186
aS'/v/beefeater/105752245'
p187
aS'/v/wide-and-ugly/106177056'
p188
aS'/v/flaming-blue-jesus-to-mandala/105841739'
p189
aS'/v/arch-stanton/107310492'
p190
aS'/v/eleven-cent-moon/105752242'
p191
aS'/v/reading-raymond-chandler-aka-practice-aid-climb/105764025'
p192
aS'/v/tm-chimney/105751261'
p193
aS'/v/fallout/105763668'
p194
aS'/v/mainstreet/105760059'
p195
aS'/v/horns-mother/105751084'
p196
aS'/v/bell-crack/105757396'
p197
aS'/v/boardwalk/105757831'
p198
aS'/v/black-starr-chimney/106268007'
p199
aS'/v/moors-crossing/105758179'
p200
aS'/v/maiden/105759651'
p201
aS'/v/unknown-left-of-maiden/107231314'
p202
aS'/v/fat-mans-demise/105844932'
p203
aS'/v/cosmic-debris/107232743'
p204
aS'/v/climb-and-punishment/105752524'
p205
aS'/v/finger-grinder/105762456'
p206
aS'/v/coffee-grinder/105832415'
p207
aS'/v/labyrinth/105895689'
p208
aS'/v/klink/107265808'
p209
aS'/v/pooh-corner/105755986'
p210
aS'/v/penis-dimension/105752551'
p211
aS'/v/hung-like-a-horse/105754141'
p212
aS'/v/climbs-of-passion-exit/105764832'
p213
aS'/v/id-rather-be-in-philadelphia/105757921'
p214
aS'/v/prologue/105756769'
p215
aS'/v/recombination-mutation/105757042'
p216
aS'/v/sore-o-pod-aka-spatial-juxtaposition/105756970'
p217
aS'/v/lawyer-on-the-toilet/105756973'
p218
aS'/v/get-up-that-tree/105760566'
p219
aS'/v/slot-a-saurus-aka-anatomy-lesson/105756979'
p220
aS'/v/flake-o-saurus/106171718'
p221
aS'/v/lichen-lung/105756958'
p222
aS'/v/mud-in-your-eye/105756985'
p223
aS'/v/hideaway-chimney/105763644'
p224
aS'/v/flake/105761001'
p225
aS'/v/parade-rest/105764553'
p226
aS'/v/soft-parade/105790454'
p227
aS'/v/master-blaster/105762072'
p228
aS'/v/public-whipping-post/105762636'
p229
aS'/v/corn/105763011'
p230
aS'/v/barley/105763014'
p231
aS'/v/amaranth/105763017'
p232
aS'/v/kasha/106838589'
p233
aS'/v/high-tea-for-hookers/107164241'
p234
aS'/v/plumb-line/105764358'
p235
aS'/v/someday-kids-this-will-all-be-yours/106495333'
p236
aS'/v/closer-to-the-sun/105959422'
p237
aS'/v/guan-ho/106783473'
p238
aS'/v/big-pink/105763284'
p239
aS'/v/walking-up-to-zion/105758754'
p240
aS'/v/wild-thing/105952070'
p241
aS'/v/nasty-crack/105840450'
p242
aS'/v/wrist-ranger/105764574'
p243
aS'/v/paper-training/105827835'
p244
aS'/v/straight-and-narrow/105764907'
p245
aS'/v/moonrise-variation/105979790'
p246
aS'/v/blade-runner/105764838'
p247
aS'/v/master-of-sport/106014555'
p248
aS'/v/two-of-a-kind/106231643'
p249
aS'/v/poker-face/106235554'
p250
aS'/v/womens-work/105813856'
p251
aS'/v/hypertension/105814099'
p252
aS'/v/slash/105844877'
p253
aS'/v/gash/105844911'
p254
aS'/v/bad-girls-do/106020166'
p255
aS'/v/gloria/105838614'
p256
aS'/v/bad-girls-dream/105815862'
p257
aS'/v/squat/105815492'
p258
aS'/v/fingorilla/105815637'
p259
aS'/v/driving-miss-wormy/106506422'
p260
aS'/v/worm-drive/105824316'
p261
aS'/v/eagle-brand/105834162'
p262
aS'/v/to-the-moon/105955926'
p263
aS'/v/alice/105955933'
p264
aS'/v/unknown-2/105958196'
p265
aS'/v/unknown-1/105958207'
p266
aS'/v/i-crack-animal-cracker-land/105968525'
p267
aS'/v/citadel-crack/105970541'
p268
aS'/v/heads-of-the-valley/105976163'
p269
aS'/v/jays-solo/105971385'
p270
aS'/v/shogun/105970946'
p271
aS'/v/misfits/105763935'
p272
aS'/v/out-of-sight/106001070'
p273
aS'/v/ha-tayvaw/106019497'
p274
aS'/v/la-goellette/106019512'
p275
aS'/v/stepford-wives/109386418'
p276
aS'/v/becker/105756949'
p277
aS'/v/big-house/105760713'
p278
aS'/v/yellow-belly/105765189'
p279
aS'/v/double-dippin/105954148'
p280
aS'/v/burning-man/105765186'
p281
aS'/v/jamminy-crackit/106886350'
p282
aS'/v/iron-maiden-aka-blood-drive/106164072'
p283
aS'/v/my-clone-sleeps-alone/105866210'
p284
aS'/v/storm-watch/105866339'
p285
aS'/v/spectreman/105756373'
p286
aS'/v/call-me-barney/106488551'
p287
aS'/v/the-rookie/106184656'
p288
aS'/v/behind-blue-eyes/105761667'
p289
aS'/v/baobab-tree/105760689'
p290
aS'/v/ss-maywood/105756379'
p291
aS'/v/tomb-raider/107225705'
p292
aS'/v/three-roofs/106008773'
p293
aS'/v/nicks-loose-flake-variation/106220880'
p294
aS'/v/le-petit-arbre/105764364'
p295
aS'/v/spike-it/106506331'
p296
aS'/v/bachelor-party/106790600'
p297
aS'/v/community-norms/106220895'
p298
aS'/v/raised-on-robbery/105966517'
p299
aS'/v/public-enemy/105765195'
p300
aS'/v/a-thing-of-beauty/105850431'
p301
aS'/v/medium-cool/105958050'
p302
aS'/v/outer-notch/105953951'
p303
aS'/v/go-left-old-man-go-left/105953969'
p304
aS'/v/random-crystals/106114509'
p305
aS'/v/a-dream-of-fat-antelope/106184167'
p306
aS'/v/penetration/105952398'
p307
aS'/v/intimidation/106023889'
p308
aS'/v/the-ledge-of-the-world/106023905'
p309
aS'/v/jogging-to-vedauwoo/106499737'
p310
aS'/v/take-5/106544080'
p311
aS'/v/pretty-girls-with-long-knives/106822298'
p312
aS'/v/stress-fracture/106467305'
p313
aS'/v/owen-spalding/105814121'
p314
aS'/v/upper-exum-ridge/105933562'
p315
aS'/v/direct-petzoldt-ridge/105803717'
p316
aS'/v/lower-exum-ridge/105839153'
p317
aS'/v/wittich-crack/106224520'
p318
aS'/v/east-ridge/106522984'
p319
aS'/v/black-ice-couloir/106646292'
p320
aS'/v/north-face-standard/105934549'
p321
aS'/v/north-ridge/106083200'
p322
aS'/v/the-grand-traverse/106565238'
p323
aS'/v/pownall-gilkey/106850468'
p324
aS'/v/beyer-east-face-i/105843454'
p325
aS'/v/gold-face/105997423'
p326
aS'/v/east-ridge/105984852'
p327
aS'/v/irenes-arete/105804852'
p328
aS'/v/open-book/105803655'
p329
aS'/v/guides-wall/105804246'
p330
aS'/v/no-perches-necessary/105804115'
p331
aS'/v/baxters-pinnacle---south-ridge/106003201'
p332
aS'/v/cmc-route/105823529'
p333
aS'/v/south-buttress-right-mt-moran/106043383'
p334
aS'/v/the-snaz/105802924'
p335
aS'/v/caveat-emptor/105843833'
p336
aS'/v/aerial-boundaries/105802935'
p337
aS'/v/sunshine-daydream/105839948'
p338
aS'/v/annals-of-time/105809481'
p339
aS'/v/dihedral-of-horrors/105813333'
p340
aS'/v/koven-route/105933122'
p341
aS'/v/east-ridge/106410744'
p342
aS'/v/serendipity-arete/105855267'
p343
aS'/v/north-ridge/106006216'
p344
aS'/v/middle-teton-glacier-route/108487407'
p345
aS'/v/northwest-ice-couloir/106875717'
p346
aS'/v/dike-route/107216078'
p347
aS'/v/buckingham-se-ridge/105933421'
p348
aS'/v/dem-bones/106001206'
p349
aS'/v/durrance-ridge/106418724'
p350
aS'/v/southwest-ridge/106418617'
p351
aS'/v/armed-robbery/106863909'
p352
aS'/v/corkscrew/107688663'
p353
aS'/v/elf/106075222'
p354
aS'/v/call-me-a-cab/106075218'
p355
aS'/v/edwards-crack/106075200'
p356
aS'/v/east-face-left-side-cracks/105827735'
p357
aS'/v/south-buttress/105827746'
p358
aS'/v/northeast-face/105825209'
p359
aS'/v/southwest-face-right/106232307'
p360
aS'/v/east-ridge/105848762'
p361
aS'/v/north-face-left/106243789'
p362
aS'/v/north-face-center-ecclesiastes/105856203'
p363
aS'/v/weather-or-not/107270155'
p364
aS'/v/feather-buttress/106886551'
p365
aS'/v/black-elk/106229037'
p366
aS'/v/nw-buttress/105906732'
p367
aS'/v/northeast-face-of-warrior-i/106007654'
p368
aS'/v/northeast-arete/106841461'
p369
aS'/v/north-face/106381836'
p370
aS'/v/railroad-tracks/105938983'
p371
aS'/v/minor-dihedral/105827766'
p372
aS'/v/central-corner/106010871'
p373
aS'/v/southern-wall-left/106234677'
p374
aS'/v/north-ridge/105938948'
p375
aS'/v/southwest-arete/106013239'
p376
aS'/v/midsummers-dome-ssw/106524915'
p377
aS'/v/ambush-plaisir/105845569'
p378
aS'/v/west-face-right/105881107'
p379
aS'/v/north-ridge/106077081'
p380
aS'/v/petermans-route/107065327'
p381
aS'/v/halfway/106213884'
p382
aS'/v/hemeteria-left/105973386'
p383
aS'/v/carpenters-corner/106819285'
p384
aS'/v/b-25/105973381'
p385
aS'/v/easy-day-for-a-lady/106251354'
p386
aS'/v/bushwacker/107067215'
p387
aS'/v/first-blood/105973397'
p388
aS'/v/dillingham-blues/105829783'
p389
aS'/v/greystoke/107071109'
p390
aS'/v/all-time-loser/105827667'
p391
aS'/v/the-chief/105973444'
p392
aS'/v/thanatos/105973423'
p393
aS'/v/wine-and-roses/105828723'
p394
aS'/v/horn-a-plenty/106539066'
p395
aS'/v/kiss-of-the-spiderwoman/107353417'
p396
aS'/v/tolle-route-aka-guides-route/105841167'
p397
aS'/v/exum-arete/105834006'
p398
aS'/v/triple-roofs/106549384'
p399
aS'/v/blimpie/105841191'
p400
aS'/v/clowns-and-jokers/105985900'
p401
aS'/v/geophysical/105872355'
p402
aS'/v/flake-route/106536080'
p403
aS'/v/tree-route/106385941'
p404
aS'/v/z-crack/105999761'
p405
aS'/v/bruces-crack/106158307'
p406
aS'/v/sentinal-chimney/106265910'
p407
aS'/v/standard-start/107655562'
p408
aS'/v/no-name-crack/107655569'
p409
aS'/v/gunky/106265923'
p410
a.