(lp0
S'/v/south-east-corner/105800483'
p1
aS'/v/little-wing/107221659'
p2
aS'/v/cruisin/107781447'
p3
aS'/v/free-for-all/108372532'
p4
aS'/v/right-gull/109481319'
p5
aS'/v/jills-thrill/106985373'
p6
aS'/v/young-warriors/107745977'
p7
aS'/v/free-for-all-direct/108282892'
p8
aS'/v/winter-delight/106006976'
p9
aS'/v/windsurfer/105887258'
p10
aS'/v/blownout/107198195'
p11
aS'/v/flying-dutchman/108252401'
p12
aS'/v/link-up-free-for-alldods-jamdastardly-crack/106249856'
p13
aS'/v/free-for-some/105887271'
p14
aS'/v/lost-warriors/105789552'
p15
aS'/v/windwalker/105797760'
p16
aS'/v/meth-rage/108640960'
p17
aS'/v/step-child/106439428'
p18
aS'/v/getting-your-kicks/108344993'
p19
aS'/v/hellboy/106388608'
p20
aS'/v/mrs-norris/106229599'
p21
aS'/v/route-66/108273586'
p22
aS'/v/the-humbling/106987004'
p23
aS'/v/the-crumbling/107135553'
p24
aS'/v/grace/106350635'
p25
aS'/v/mountaineers-route/107530038'
p26
aS'/v/little-dipper/108241799'
p27
aS'/v/stigmata/107162656'
p28
aS'/v/ripper/106534150'
p29
aS'/v/standing-ovation/107196099'
p30
aS'/v/orion/108241811'
p31
aS'/v/numb-nuts/106439545'
p32
aS'/v/small-nuts/106439551'
p33
aS'/v/no-nuts/106439560'
p34
aS'/v/dads-nuts/106439573'
p35
aS'/v/gophers-gone-wild/106354639'
p36
aS'/v/eight-is-enough/106992688'
p37
aS'/v/snake-face/106453923'
p38
aS'/v/opdykes-crack/106958917'
p39
aS'/v/snake-roof/106453950'
p40
aS'/v/party-at-the-moon-tower/106957749'
p41
aS'/v/stairway-to-heaven/108472668'
p42
aS'/v/hang-up-your-hang-ups/106769439'
p43
aS'/v/jacobs-ladder/107233979'
p44
aS'/v/there-yare/108056770'
p45
aS'/v/burrito-killa/107234047'
p46
aS'/v/rolling-thunder/108907414'
p47
aS'/v/redhorn-gate/108055082'
p48
aS'/v/helms-deep/106887440'
p49
aS'/v/why-must-i-cry/106887460'
p50
aS'/v/grab-n-go/109198962'
p51
aS'/v/house-of-pain/106887491'
p52
aS'/v/chaos/106992705'
p53
aS'/v/kung-fu/106992718'
p54
aS'/v/dirty-jugs/106992729'
p55
aS'/v/sweeping-beauty/107233603'
p56
aS'/v/masterpiece-theatre/106987102'
p57
aS'/v/beyond-the-glory/106887525'
p58
aS'/v/rauch-factor/106703124'
p59
aS'/v/high-plains-drifter/106900957'
p60
aS'/v/chainmail/107135475'
p61
aS'/v/md-route/106703111'
p62
aS'/v/the-bearded-lady/106958885'
p63
aS'/v/bag-ends/107595148'
p64
aS'/v/brandywine/107242349'
p65
aS'/v/trinity-crack/107162637'
p66
aS'/v/kamikaze/106958928'
p67
aS'/v/carrots-for-everyone/107029417'
p68
aS'/v/may-day/107234517'
p69
aS'/v/there--back-again/108057078'
p70
aS'/v/playing-hooky/109103280'
p71
aS'/v/1st-grade-problems/109103286'
p72
aS'/v/happy-crack/106863285'
p73
aS'/v/2trad4u/106863282'
p74
aS'/v/solid-gold/106863260'
p75
aS'/v/the-lonesome-winner/106863272'
p76
aS'/v/freak-freely/106863276'
p77
aS'/v/oracle/106863264'
p78
aS'/v/wushu-roof/106863268'
p79
aS'/v/adams-crack/106863126'
p80
aS'/v/lion-of-judah-aka-sugar-and-spice/106863249'
p81
aS'/v/the-darkhorse/106863214'
p82
aS'/v/day-of-atonement/106863252'
p83
aS'/v/center-squeeze/106863209'
p84
aS'/v/naughty-and-nice/106863244'
p85
aS'/v/closeout/106863101'
p86
aS'/v/sweet-fucker/106863069'
p87
aS'/v/the-head-wall/106863082'
p88
aS'/v/boo-coup/106863117'
p89
aS'/v/tribal-therapy/106862754'
p90
aS'/v/express-arete/107600225'
p91
aS'/v/battle-of-the-bulge/107600258'
p92
aS'/v/updraft-from-hell/109103118'
p93
aS'/v/supernova/109451879'
p94
aS'/v/rainy-day-surprise/109828396'
p95
aS'/v/zen-ith/109502872'
p96
aS'/v/breaking-through-the-layers/109103103'
p97
aS'/v/pisces/106620653'
p98
aS'/v/sickle-crack/106589110'
p99
aS'/v/taurus/106621804'
p100
aS'/v/great-northern-slab/105790657'
p101
aS'/v/aires/105793821'
p102
aS'/v/rogers-corner/105838643'
p103
aS'/v/breakfast-of-champions/105795818'
p104
aS'/v/libra-crack/105795777'
p105
aS'/v/sugar-bear/106204401'
p106
aS'/v/strength-through-bowling/106857032'
p107
aS'/v/marginal-karma/105795821'
p108
aS'/v/terminal-preppie/105995079'
p109
aS'/v/princely-ambitions/105790710'
p110
aS'/v/godzilla/105790717'
p111
aS'/v/sagittarius/105796710'
p112
aS'/v/city-park-bolt-ladder/109925731'
p113
aS'/v/dr-sniff-and-the-tuna-boaters/105806007'
p114
aS'/v/slow-children/105815743'
p115
aS'/v/tommys-sandbox/107720333'
p116
aS'/v/model-worker/105814991'
p117
aS'/v/tadpole/106033899'
p118
aS'/v/japanese-gardens/105791008'
p119
aS'/v/iron-horse/105903139'
p120
aS'/v/bwana-dik/106867964'
p121
aS'/v/stern-farmer/105821732'
p122
aS'/v/batskins/106197963'
p123
aS'/v/numbah-ten/105796722'
p124
aS'/v/tpmv-10-meteorological-vinculation/106328521'
p125
aS'/v/city-park/106328525'
p126
aS'/v/newest-industry/106328517'
p127
aS'/v/tatoosh/106171292'
p128
aS'/v/thin-fingers/105805741'
p129
aS'/v/deal-with-it-ranger/108143351'
p130
aS'/v/24-hour-buccaneer/105872570'
p131
aS'/v/with-apologies-to-walter-b/105955198'
p132
aS'/v/shirley/106140118'
p133
aS'/v/natural-log-cabin/105805752'
p134
aS'/v/like-honey/106918228'
p135
aS'/v/narrow-arrow-direct/106222524'
p136
aS'/v/ss-ultrabrutal/105790674'
p137
aS'/v/mourning-star/107690583'
p138
aS'/v/gm-route/105790678'
p139
aS'/v/cunning-stunt/105800865'
p140
aS'/v/zoom/106054444'
p141
aS'/v/tunnel-vision/107818883'
p142
aS'/v/frank-presley/105808027'
p143
aS'/v/hairway-to-stephen/106054430'
p144
aS'/v/leave-my-face-alone/106171282'
p145
aS'/v/angora-grotto/108293441'
p146
aS'/v/heart-of-the-country/106150810'
p147
aS'/v/phone-calls-from-the-dead/106194680'
p148
aS'/v/d-is-for-dictory/106330015'
p149
aS'/v/climax-control/105805759'
p150
aS'/v/kite-flying-blind/106052910'
p151
aS'/v/wham/106185268'
p152
aS'/v/just-say-no-to-frank-sinatra/105805764'
p153
aS'/v/little-jupiter--short-version/106052898'
p154
aS'/v/spooner/106424477'
p155
aS'/v/fifth-force/106184824'
p156
aS'/v/toxic-shock/105791086'
p157
aS'/v/even-steven/105791090'
p158
aS'/v/slapshot/106206191'
p159
aS'/v/corner-flash/106677557'
p160
aS'/v/agent-orange/107819526'
p161
aS'/v/who-put-the-purr-in-my-pussy/105872065'
p162
aS'/v/happy-puppy/105872056'
p163
aS'/v/troubled-waters/110165436'
p164
aS'/v/pressure-drop/106436379'
p165
aS'/v/lovin-arms/106194690'
p166
aS'/v/davis-holland-route/105836583'
p167
aS'/v/green-drag-on/106002161'
p168
aS'/v/town-crier/106857410'
p169
aS'/v/the-black-flag-of-the-schwarzer-kamin/108928507'
p170
aS'/v/sideshow/106235537'
p171
aS'/v/the-zipper/106329364'
p172
aS'/v/clay/106329321'
p173
aS'/v/attractive-nuisance/105790979'
p174
aS'/v/dgs-/107310316'
p175
aS'/v/heavens-gate/105816053'
p176
aS'/v/danas-arch/106329381'
p177
aS'/v/golden-road/106255312'
p178
aS'/v/wildest-dreams/106329266'
p179
aS'/v/uper-zipper/108146751'
p180
aS'/v/dead-reckoning-aka-the-terry-michaels-route/108245407'
p181
aS'/v/black-sea/108138896'
p182
aS'/v/senior-citizens-in-space/106057429'
p183
aS'/v/battered-sandwich/106004538'
p184
aS'/v/magic-fern/106141922'
p185
aS'/v/wet-dream/108177373'
p186
aS'/v/spineless/107305439'
p187
aS'/v/900-oil-stricken-waterfowl-taken-to-ocean-shores/107298903'
p188
aS'/v/i-am-in-top-a-shader/107298333'
p189
aS'/v/chasin-the-lizard/106362583'
p190
aS'/v/rattletale/106204435'
p191
aS'/v/a-group-of-mysteries-of-frenchwoman/107561152'
p192
aS'/v/peanuts-to-serve-you/106457326'
p193
aS'/v/law-and-order/107571773'
p194
aS'/v/rice-krispies/107527051'
p195
aS'/v/a-ship-called-black-rock/107699032'
p196
aS'/v/bowling-to-biscuits/107377841'
p197
aS'/v/baby-tapir/107526961'
p198
aS'/v/an-act-of-strange-boar/107527007'
p199
aS'/v/solitude/107306489'
p200
aS'/v/bobcat-cringe/107377907'
p201
aS'/v/a-hatch/109469876'
p202
aS'/v/them/106455191'
p203
aS'/v/index-air-force/106477409'
p204
aS'/v/meadow-and-spicer/107296745'
p205
aS'/v/timberjack/105805984'
p206
aS'/v/gorilla-my-dreams/105805980'
p207
aS'/v/twelve-gauge-iq/106329281'
p208
aS'/v/robins-ramp/106461785'
p209
aS'/v/seamstress-access-route/108145655'
p210
aS'/v/plum-pudding/106386419'
p211
aS'/v/hips-and-valleys/107727184'
p212
aS'/v/pbr/108140143'
p213
aS'/v/flippo/107727136'
p214
aS'/v/folsom-blues/108161862'
p215
aS'/v/stems--valleys/108269608'
p216
aS'/v/special-k/106824109'
p217
aS'/v/rise-pumpkin-rise/107304882'
p218
aS'/v/cf-route/107254704'
p219
aS'/v/spring-fall/107254730'
p220
aS'/v/bend-and-stretch/107254480'
p221
aS'/v/comes-in-quartz/107254712'
p222
aS'/v/tilt/107304901'
p223
aS'/v/smiley-kylee/108623329'
p224
aS'/v/exponential-excavation/108314873'
p225
aS'/v/huberts-revenge/108321474'
p226
aS'/v/reptiles-and-amphetamines/105793829'
p227
aS'/v/devils-advocate/106386272'
p228
aS'/v/opening-act/107239645'
p229
aS'/v/blm-4/107819027'
p230
aS'/v/jug-or-not/106246546'
p231
aS'/v/blm-7/107822931'
p232
aS'/v/son-of-jesus/106386267'
p233
aS'/v/girls-in-the-gym/106386277'
p234
aS'/v/blm-5/107819034'
p235
aS'/v/blm-6/105840317'
p236
aS'/v/disincarnate/106926556'
p237
aS'/v/aborigine/105793712'
p238
aS'/v/megatherion/107239666'
p239
aS'/v/vudu-guru/107261452'
p240
aS'/v/dreaming-of-a-life-of-ease/105793718'
p241
aS'/v/bad-guy/105820566'
p242
aS'/v/rainy-day-woman/105789888'
p243
aS'/v/deluge/105805720'
p244
aS'/v/end-of-the-world/105812383'
p245
aS'/v/bust-the-move/107283446'
p246
aS'/v/dairy-freeze/105790187'
p247
aS'/v/hang-it-out-to-dry/105820575'
p248
aS'/v/technorigine/105793715'
p249
aS'/v/hydrophobia/105805796'
p250
aS'/v/bust-the-rhythm/105805804'
p251
aS'/v/propaganda/105805809'
p252
aS'/v/psychosomatic/105792640'
p253
aS'/v/chronic/105805917'
p254
aS'/v/black-ice/105805805'
p255
aS'/v/first-things-first/107187454'
p256
aS'/v/repo-man/106427294'
p257
aS'/v/mambo-jambo/105953632'
p258
aS'/v/kinder-gentler-carpet-bombing/107694665'
p259
aS'/v/goddess/105793729'
p260
aS'/v/little-hittlers/105793733'
p261
aS'/v/sweet-and-sticky/105827410'
p262
aS'/v/violent-phlegms/106228906'
p263
aS'/v/cranium-teaser/106502599'
p264
aS'/v/blackstone-1/106502569'
p265
aS'/v/human-foot/105827424'
p266
aS'/v/blackstone-2/106502575'
p267
aS'/v/blm-2/107541185'
p268
aS'/v/the-big-easy/105827418'
p269
aS'/v/stepping-stones/106463637'
p270
aS'/v/blackstone-5/106502588'
p271
aS'/v/street-cleaner-/107694619'
p272
aS'/v/godflesh/106181543'
p273
aS'/v/strip-clip/106002156'
p274
aS'/v/neverigine/105793329'
p275
aS'/v/love-bucket/106887421'
p276
aS'/v/powerless/106887446'
p277
aS'/v/big-mama/106221622'
p278
aS'/v/easily-amused/107824351'
p279
aS'/v/steep-street/105792983'
p280
aS'/v/architect-rally/106221614'
p281
aS'/v/negatherion/105793325'
p282
aS'/v/cultureshock/105793317'
p283
aS'/v/under-arrest/105793322'
p284
aS'/v/giant/105798204'
p285
aS'/v/sodflesh/106006911'
p286
aS'/v/iguanarama/106006900'
p287
aS'/v/qd-pie/107283419'
p288
aS'/v/radioactive-decay/107283409'
p289
aS'/v/i-remember-drooling/107283413'
p290
aS'/v/ten-ish-ooze/106006916'
p291
aS'/v/tropicana/106210609'
p292
aS'/v/scrubbing-neon/107655977'
p293
aS'/v/primus/106006893'
p294
aS'/v/drier-adhesive-to-the/106006906'
p295
aS'/v/easy-street/107258498'
p296
aS'/v/your-sister/107258492'
p297
aS'/v/absolutely-nothing/105799843'
p298
aS'/v/blockhead/105804241'
p299
aS'/v/black-caboose/106579497'
p300
aS'/v/sobriety/106579528'
p301
aS'/v/some-drugs/106579554'
p302
aS'/v/my-ex-wife/107258485'
p303
aS'/v/the-joker/107121934'
p304
aS'/v/bad-choo-choo/107641438'
p305
aS'/v/flammable-pajamas/106002151'
p306
aS'/v/bu-the-rabbit/109140029'
p307
aS'/v/mom-theres-pink-in-my-burger/106002141'
p308
aS'/v/unnamed-route/107641448'
p309
aS'/v/bottoms-up/106241707'
p310
aS'/v/knife-in-the-toaster/106002147'
p311
aS'/v/peanut-brittle/106589465'
p312
aS'/v/a-summer-known-as-fall/106589421'
p313
aS'/v/the-owl/106589461'
p314
aS'/v/killer-bob/106589449'
p315
aS'/v/never-was-a-cowgirl/106589469'
p316
aS'/v/awannaduya/106589495'
p317
aS'/v/gallivant/106589426'
p318
aS'/v/homo-erectus/106810828'
p319
aS'/v/glob-job/106589615'
p320
aS'/v/rug-monkey/107783732'
p321
aS'/v/glom-don/106810822'
p322
aS'/v/hurly-burly/106810808'
p323
aS'/v/primordial-blues/107783741'
p324
aS'/v/lovely-dovely/107616232'
p325
aS'/v/bwana-be-your-man/106589607'
p326
aS'/v/hangover-helper/108273656'
p327
aS'/v/stick-boy/108512054'
p328
aS'/v/rhino-vista/107667060'
p329
aS'/v/erectile-dysfunction/107641422'
p330
aS'/v/occams-razor/107641432'
p331
aS'/v/rhino-rave/107667064'
p332
aS'/v/old-milwaukee-road/108330417'
p333
aS'/v/endless-bliss/105798597'
p334
aS'/v/elation-at-the-end-of-eternity/105798604'
p335
aS'/v/super-squish/105798601'
p336
aS'/v/i-wanna-go-home/105853976'
p337
aS'/v/the-plank/105854030'
p338
aS'/v/lost-my-marbles/105858455'
p339
aS'/v/sleep-or-awake/107121962'
p340
aS'/v/smea-59/105854040'
p341
aS'/v/bite-me/107602277'
p342
aS'/v/tick-tock/108130031'
p343
aS'/v/hard-to-port/105858433'
p344
aS'/v/pixie-dust/105858437'
p345
aS'/v/think-happy-thoughts/105858448'
p346
aS'/v/so-easy-i-forgot-to-laugh/106521648'
p347
aS'/v/lucky-arms/106760955'
p348
aS'/v/petes-possum-palace/106521666'
p349
aS'/v/so-funny-i-forgot-to-rope-up-57/106521660'
p350
aS'/v/snaffle-baffler/106760933'
p351
aS'/v/needle-magnet/106760941'
p352
aS'/v/99-grit/106422486'
p353
aS'/v/magnetic-anomaly/106760950'
p354
aS'/v/chica-rapida/106422580'
p355
aS'/v/booty-squirrel/106428365'
p356
aS'/v/a-girls-best-friend/106428381'
p357
aS'/v/party-girl/106422616'
p358
aS'/v/siamese-dream/106422623'
p359
aS'/v/midnight-scrambler/108172281'
p360
aS'/v/swarm/107756673'
p361
aS'/v/nocturnal-remission/108172312'
p362
aS'/v/light-headed-again/107756663'
p363
aS'/v/insomniac/107783765'
p364
aS'/v/carnage-before-bedtime/107756696'
p365
aS'/v/kiss-of-the-crowbar/106533648'
p366
aS'/v/tunnel-of-love/106900406'
p367
aS'/v/impartial-eclipse/107783773'
p368
aS'/v/eb-2/109389334'
p369
aS'/v/eb-1/107756712'
p370
aS'/v/ellies-sweet-kiss/106523720'
p371
aS'/v/lip-service/106900418'
p372
aS'/v/missing-the-taco/106523736'
p373
aS'/v/space-face/106523693'
p374
aS'/v/hurricane/106523706'
p375
aS'/v/strategic-placement/106523698'
p376
aS'/v/boys-drool/106523745'
p377
aS'/v/girls-rule/106523749'
p378
aS'/v/es-2/106521698'
p379
aS'/v/es-1/106521687'
p380
aS'/v/es-3/106521705'
p381
aS'/v/cornery-bypass/107705217'
p382
aS'/v/toying-with-my-afflictions/107705222'
p383
aS'/v/sheltered-upbringing/108276197'
p384
aS'/v/catatonic/108391911'
p385
aS'/v/winter-rushing-in/108391917'
p386
aS'/v/november-glaze/108315001'
p387
aS'/v/science-friction/109399811'
p388
aS'/v/infinite-bliss/108170867'
p389
aS'/v/improbable-traverse/107316713'
p390
aS'/v/the-tooth---south-face/106378880'
p391
aS'/v/volunteer-park-water-tower/106515697'
p392
aS'/v/northwest-corner-aka-boving-pollack-route/105792199'
p393
aS'/v/the-west-face/105847147'
p394
aS'/v/beckey-route-sw-face/105797867'
p395
aS'/v/rapple-grapple/106509842'
p396
aS'/v/overexposure/106555416'
p397
aS'/v/nw-face/107238596'
p398
aS'/v/liberty-crack/106512297'
p399
aS'/v/thin-red-line-free-version/108257819'
p400
aS'/v/east-face--rebel-yell/106256230'
p401
aS'/v/north-face/107231977'
p402
aS'/v/west-ridge/108262093'
p403
aS'/v/clean-break/109232141'
p404
aS'/v/south-arete/106378815'
p405
aS'/v/sw-rib/106416669'
p406
aS'/v/direct-east-buttress/106883451'
p407
aS'/v/the-hitchhiker/108294579'
p408
aS'/v/northwest-face/107288315'
p409
aS'/v/the-passenger/106585962'
p410
aS'/v/north-face/109194342'
p411
aS'/v/east-face/106482011'
p412
aS'/v/north-face/106543279'
p413
aS'/v/the-cave-route/106509917'
p414
aS'/v/north-face-var-right/107715253'
p415
aS'/v/ellen-pea/106565918'
p416
aS'/v/spontaneity-arete/107213171'
p417
aS'/v/south-buttress/109326651'
p418
aS'/v/east-face/106325768'
p419
aS'/v/west-ridge/106450596'
p420
aS'/v/east-ridge-direct/107244142'
p421
aS'/v/torment-forbidden-traverse-/108312467'
p422
aS'/v/southeast-ridge/108338771'
p423
aS'/v/east-ridge/108257648'
p424
aS'/v/the-big-tree/106006701'
p425
aS'/v/under-the-bored-walk/106813204'
p426
aS'/v/till-broad-daylight/106007005'
p427
aS'/v/the-quin-konehead-pre-memorial-route-aka-the-kone/106813219'
p428
aS'/v/charlie-chans-number-one-suspect/106813211'
p429
aS'/v/total-soul/106007016'
p430
aS'/v/silent-running/108263566'
p431
aS'/v/dark-rhythm/107192430'
p432
aS'/v/ancient-melodies/107773529'
p433
aS'/v/jacobs-ladder-510b-a-1-or-511b/106006715'
p434
aS'/v/dreamer-direct/106910278'
p435
aS'/v/dreamer/106006991'
p436
aS'/v/urban-bypass/106910253'
p437
aS'/v/roan-wall---center-stage/106257989'
p438
aS'/v/excalibur/109945633'
p439
aS'/v/the-joker/109259759'
p440
aS'/v/the-open-book/106413723'
p441
aS'/v/jack-of-diamonds/106413732'
p442
aS'/v/tindalls-terror/106498958'
p443
aS'/v/false-impressions/106498941'
p444
aS'/v/lasting-impressions/108280686'
p445
aS'/v/intimidator/106498950'
p446
aS'/v/terminator/106498954'
p447
aS'/v/lethal-weapon/106498945'
p448
aS'/v/zig-zag/106517013'
p449
aS'/v/undercover/106517028'
p450
aS'/v/springboard/106517047'
p451
aS'/v/frogs-in-space/106517059'
p452
aS'/v/oyster-odyssey-/108237079'
p453
aS'/v/pink-medusa/106208230'
p454
aS'/v/crystal-ship/106966846'
p455
aS'/v/saffron-spider/106966819'
p456
aS'/v/julia-the-viking-queen/106966833'
p457
aS'/v/clicking-barnacles/106966837'
p458
aS'/v/the-dt-route/107688751'
p459
aS'/v/lazarus-59/107329464'
p460
aS'/v/valley-of-bones/107688760'
p461
aS'/v/the-dihedral-/107631750'
p462
aS'/v/cold-beer-in-the-river/106261309'
p463
aS'/v/luna-park/106261297'
p464
aS'/v/kate-moss/106282862'
p465
aS'/v/domestic-bliss/108981812'
p466
aS'/v/serendipity/106846471'
p467
aS'/v/hull-yeah/108981956'
p468
aS'/v/12c-for-a-day/108981676'
p469
aS'/v/cinnamon-groove/106816391'
p470
aS'/v/cell-phone-posse/106547528'
p471
aS'/v/the-dog-ate-my-topo/106590990'
p472
aS'/v/the-scene-is-clean/105794286'
p473
aS'/v/no-room-for-squares/106255084'
p474
aS'/v/loaves-of-fun/106796348'
p475
aS'/v/golden-delicious-/109269857'
p476
aS'/v/cloud-nine/106409785'
p477
aS'/v/lost-souls/108931525'
p478
aS'/v/celestial-groove/105791954'
p479
aS'/v/easy-pickins/105792025'
p480
aS'/v/milky-way/105791931'
p481
aS'/v/veins-of-glory/105791922'
p482
aS'/v/pearly-gates/106409528'
p483
aS'/v/leap-of-faith/106434115'
p484
aS'/v/orbit/106768055'
p485
aS'/v/outer-space/105793664'
p486
aS'/v/mary-jane-dihedral/107781733'
p487
aS'/v/iconoclast/107191762'
p488
aS'/v/hyperspace/106279399'
p489
aS'/v/edge-of-space/107205609'
p490
aS'/v/condorification/105822227'
p491
aS'/v/opus-of-the-condorian-kind-/106587794'
p492
aS'/v/condorphamine-addiction/105793190'
p493
aS'/v/givlers-crack/105793355'
p494
aS'/v/bo-derek/105809767'
p495
aS'/v/mickey-mantle/106590333'
p496
aS'/v/twin-cracks/106590813'
p497
aS'/v/classic-crack/105793864'
p498
aS'/v/deception-crack/105794394'
p499
aS'/v/west-ridge/105808527'
p500
aS'/v/south-face-beckey-davis-route/108228989'
p501
aS'/v/stanley-burgner-route/105808515'
p502
aS'/v/solid-gold/107618376'
p503
aS'/v/der-sportsman/107641573'
p504
aS'/v/dogleg-crack/105825054'
p505
aS'/v/meat-grinder/105825060'
p506
aS'/v/hind-quarters/106228490'
p507
aS'/v/z-crack/105825065'
p508
aS'/v/st-vitus-dance/106270721'
p509
aS'/v/jazzy-document/107326347'
p510
aS'/v/heart-of-gold/105981652'
p511
aS'/v/crab-cakes/105944839'
p512
aS'/v/virgin-sturgeon/105944878'
p513
aS'/v/yard-art/105940765'
p514
aS'/v/west-face/108151526'
p515
aS'/v/lawn-darts/106745642'
p516
aS'/v/kilt-twister/105962573'
p517
aS'/v/inverted-firkin/105962577'
p518
aS'/v/peckin-time/106590833'
p519
aS'/v/slap/106007952'
p520
aS'/v/straight-street/106008012'
p521
aS'/v/kitty-corner/106590847'
p522
aS'/v/off-duty/106007960'
p523
aS'/v/the-warrior/107182339'
p524
aS'/v/noisy-oyster/105869882'
p525
aS'/v/clamshell-crack/105981198'
p526
aS'/v/shrimp-salad/105869873'
p527
aS'/v/58-cube-crack/106165686'
p528
aS'/v/keep-clam/105869878'
p529
aS'/v/forty-four-fifty/105981203'
p530
aS'/v/grtc/105869868'
p531
aS'/v/careno-corners/106011317'
p532
aS'/v/existential-exit/106422839'
p533
aS'/v/exotic-dancer/106425481'
p534
aS'/v/cool-struttin/106467435'
p535
aS'/v/regular-route/106214068'
p536
aS'/v/a-swingin-affair/106425489'
p537
aS'/v/balekramar-route/108388413'
p538
aS'/v/pumpline/106228532'
p539
aS'/v/serpentine-ridge/106015955'
p540
aS'/v/backbone-ridge/106073405'
p541
aS'/v/56-dihedral/106165717'
p542
aS'/v/59-crack/106165758'
p543
aS'/v/510a-arete/106606417'
p544
aS'/v/sams-n-cams/106255429'
p545
aS'/v/groping-for-oprahs-navel/106255424'
p546
aS'/v/ski-tracks-crack/106255438'
p547
aS'/v/jaywalking-for-jesus/106597835'
p548
aS'/v/dont-forget-arete/106597890'
p549
aS'/v/woof-woof-roof/106597873'
p550
aS'/v/ragweed/106590878'
p551
aS'/v/air-force-crack/106278152'
p552
aS'/v/aisle-of-sky/106904386'
p553
aS'/v/zap-crack/108120109'
p554
aS'/v/birthday-boy/106582185'
p555
aS'/v/romper-room/106582024'
p556
aS'/v/playground-bully/106904517'
p557
aS'/v/flake-fest/106562837'
p558
aS'/v/april-mayhem/106562848'
p559
aS'/v/sonic-boom/106605458'
p560
aS'/v/r--d/106582065'
p561
aS'/v/cocaine-connection/106589563'
p562
aS'/v/spaghetti-sauce/106582078'
p563
aS'/v/the-arch/106589156'
p564
aS'/v/cocaine-crack/106589180'
p565
aS'/v/bobs-4th-crack/106583471'
p566
aS'/v/easy-cracks/107820939'
p567
aS'/v/56-crack/106630563'
p568
aS'/v/57-face/108199822'
p569
aS'/v/58-crack/106630552'
p570
aS'/v/blunt-instrument/106712349'
p571
aS'/v/paydirt/106615908'
p572
aS'/v/undertoe/107600806'
p573
aS'/v/surf-city/106605533'
p574
aS'/v/right-crack/106600199'
p575
aS'/v/gibsons-crack/106600221'
p576
aS'/v/left-crack/106600187'
p577
aS'/v/roof-crack/106600214'
p578
aS'/v/x-crack-right-finish/106605334'
p579
aS'/v/y-crack/106605323'
p580
aS'/v/new-fixtures/106927963'
p581
aS'/v/face-value/106609865'
p582
aS'/v/nose-job/106609860'
p583
aS'/v/left-cheek/106609870'
p584
aS'/v/the-tree-route/106807375'
p585
aS'/v/golden-grits/106900279'
p586
aS'/v/crack-du-jour/108203856'
p587
aS'/v/dollars-for-donuts/106900225'
p588
aS'/v/carnival-crack/108090147'
p589
aS'/v/poison-ivy-crack/108381760'
p590
aS'/v/the-warrior/108390395'
p591
aS'/v/ranchstyle/108880366'
p592
aS'/v/acid-baby/109928434'
p593
aS'/v/saber/105792672'
p594
aS'/v/midway/105870883'
p595
aS'/v/midway-direct/105870890'
p596
aS'/v/cat-burglar/105898540'
p597
aS'/v/canary/105790788'
p598
aS'/v/old-gray-mare/106523118'
p599
aS'/v/saints/108401793'
p600
aS'/v/south-face-jello-tower/105792847'
p601
aS'/v/damnation-crack/105809780'
p602
aS'/v/crack-of-doom/105809789'
p603
aS'/v/angel/105852476'
p604
aS'/v/mf-overhang/105898536'
p605
aS'/v/satanic-verses/108411962'
p606
aS'/v/the-nose-of-jello-tower/105809771'
p607
aS'/v/mf-direct/108977845'
p608
aS'/v/das-musak/106269300'
p609
aS'/v/no-such-thing-as-a-free-lunge/108050202'
p610
aS'/v/easter-overhang/105809794'
p611
aS'/v/the-sting/106409812'
p612
aS'/v/rotc/105806145'
p613
aS'/v/honkeys-lament/108320561'
p614
aS'/v/gun-rack/105921065'
p615
aS'/v/nettlesome/105794275'
p616
aS'/v/playin-possum/105794282'
p617
aS'/v/poultry-in-motion/105794216'
p618
aS'/v/perils-of-pauline/105794030'
p619
aS'/v/piece-of-the-puzzle/105822191'
p620
aS'/v/cryptogram/105822199'
p621
aS'/v/perplexus/105822207'
p622
aS'/v/opening-ceremonies/105865895'
p623
aS'/v/the-javelin/105865869'
p624
aS'/v/agent-orange/105869901'
p625
aS'/v/red-tide/105869889'
p626
aS'/v/the-fault/105898533'
p627
aS'/v/catapult/106745525'
p628
aS'/v/the-bone/106410946'
p629
aS'/v/brass-balls/106745506'
p630
aS'/v/mr-clean/105870903'
p631
aS'/v/ground-hog-day/107225122'
p632
aS'/v/aquarius/107706079'
p633
aS'/v/early-archeologist/107605814'
p634
aS'/v/forearm-confusion/109522941'
p635
aS'/v/tubbing-at-der-ritterhoff/107605805'
p636
aS'/v/rock-n-rattle/107605707'
p637
aS'/v/hobophobic/108045816'
p638
aS'/v/toothless/110263710'
p639
aS'/v/leche-la-vaca/106864357'
p640
aS'/v/the-scoop/106871886'
p641
aS'/v/west-face/105806033'
p642
aS'/v/let-it-burn/108157307'
p643
aS'/v/the-tunnel/105875424'
p644
aS'/v/martian-diagonal/105876979'
p645
aS'/v/diagonal-direct/105876986'
p646
aS'/v/west-face/105875473'
p647
aS'/v/lightning-crack/105875465'
p648
aS'/v/ingalls-peak-south-ridge/107664796'
p649
aS'/v/west-ridge/106502853'
p650
aS'/v/ingalls-peak-east-ridge/108202801'
p651
aS'/v/upper-north-ridge-wgreat-gendarme/106050599'
p652
aS'/v/the-direct-north-ridge-w-gendarme/106245725'
p653
aS'/v/gorillas-in-the-mist/106585178'
p654
aS'/v/west-arete/105921315'
p655
aS'/v/western-front/106021440'
p656
aS'/v/the-cutting-edge/107128177'
p657
aS'/v/x-factor/107128165'
p658
aS'/v/jam-exam/106022092'
p659
aS'/v/thriller-pillar/107192057'
p660
aS'/v/cross-eyed-and-painless/107588478'
p661
aS'/v/developing-arms/107588485'
p662
aS'/v/stress-management/105922227'
p663
aS'/v/orange-sunshine/105922178'
p664
aS'/v/paul-maul/106442996'
p665
aS'/v/columns-holiday/107588465'
p666
aS'/v/solar-king/105972388'
p667
aS'/v/the-price-of-complacency/105922241'
p668
aS'/v/slacker/106021419'
p669
aS'/v/good-timer/106021428'
p670
aS'/v/double-trouble/106799796'
p671
aS'/v/twin-cracks/106799818'
p672
aS'/v/unknown-57/106022083'
p673
aS'/v/little-known-wonder/107128270'
p674
aS'/v/mush-maker/107128150'
p675
aS'/v/first-blood/108161888'
p676
aS'/v/wild-childvariation/107128264'
p677
aS'/v/inca-roads/107128139'
p678
aS'/v/eds-jam/106539493'
p679
aS'/v/mx/105937826'
p680
aS'/v/private-passion/107128249'
p681
aS'/v/another-one-bites-the-dust/107128258'
p682
aS'/v/cruel-harvest/107128234'
p683
aS'/v/hallowed-ground/107128242'
p684
aS'/v/tiers/107128226'
p685
aS'/v/salmon-song/106118926'
p686
aS'/v/treatment-bound/106892235'
p687
aS'/v/reckoning/106892183'
p688
aS'/v/pure-joy/105973915'
p689
aS'/v/sugar-kicks/106892263'
p690
aS'/v/tragically-hip/106337835'
p691
aS'/v/relics/107670089'
p692
aS'/v/aboriginal-design/107670101'
p693
aS'/v/king-tuts-tomb/105929815'
p694
aS'/v/travalava/106532721'
p695
aS'/v/cherry-garcia/106532728'
p696
aS'/v/screamin-for-rope/106533426'
p697
aS'/v/b-weir-of-the-dead/106532642'
p698
aS'/v/artificially-insteminated/106532678'
p699
aS'/v/saint-of-circumstance/106443443'
p700
aS'/v/steal-your-face/106532631'
p701
aS'/v/fit-to-be-tie-dyed/106533431'
p702
aS'/v/lava-sundae/107694918'
p703
aS'/v/ring-of-fire/107694908'
p704
aS'/v/cat-crack/106191555'
p705
aS'/v/ride-the-lightning/108454104'
p706
aS'/v/where-the-sidewalk-ends/106403110'
p707
aS'/v/mandatory-suicide/106403153'
p708
aS'/v/shake-it-dont-break-it/106399185'
p709
aS'/v/get-the-pever-fever/106403148'
p710
aS'/v/notch-route/106279516'
p711
aS'/v/feather-in-my-cap/106403086'
p712
aS'/v/beckey-route/106403137'
p713
aS'/v/ruffled-feathers/106403103'
p714
aS'/v/altar-of-sacrifice/106582612'
p715
aS'/v/satans-little-helper/105793703'
p716
aS'/v/the-uprising/105996964'
p717
aS'/v/jesus-saves/106279526'
p718
aS'/v/shin-smasher/106515723'
p719
aS'/v/desert-shield/105947340'
p720
aS'/v/blood-blister/106260070'
p721
aS'/v/criminally-insane/106402120'
p722
aS'/v/satans-wagon/105793707'
p723
aS'/v/updrafts-to-heaven/106582665'
p724
aS'/v/ring-pin-crack/106502557'
p725
aS'/v/don-coyote/106020957'
p726
aS'/v/arterial-bypass/106712419'
p727
aS'/v/so-funny-i-forgot-to-laugh/106582636'
p728
aS'/v/me-too/106597507'
p729
aS'/v/medicine-man/105793695'
p730
aS'/v/fraggled-pickle/106582645'
p731
aS'/v/nightbird/108024079'
p732
aS'/v/windwalker/108842420'
p733
aS'/v/dance-of-the-shaman/105793700'
p734
aS'/v/wind-walker/106502546'
p735
aS'/v/wish-i-were-skiing-at-49-degrees-north/106582654'
p736
aS'/v/hardening-of-the-arteries/106515742'
p737
aS'/v/272/107514055'
p738
aS'/v/left-out/107378038'
p739
aS'/v/theresas-lingere/107514061'
p740
aS'/v/sex-party/105972125'
p741
aS'/v/the-elders/107514177'
p742
aS'/v/slim-and-curvy/105972103'
p743
aS'/v/savage-heart/105972116'
p744
aS'/v/human-sacrifice/105972111'
p745
aS'/v/jihad/105946942'
p746
aS'/v/desert-dessert/105947062'
p747
aS'/v/lingerie/105972134'
p748
aS'/v/peaceful-warrior/105793808'
p749
aS'/v/stroken-the-chicken/108124854'
p750
aS'/v/seven-virgins-and-a-mule/105793812'
p751
aS'/v/the-chossmaster/106399178'
p752
aS'/v/shady-chimney/107479199'
p753
aS'/v/clip-em-or-skip-em/106399166'
p754
aS'/v/vantage-point/106399158'
p755
aS'/v/crossing-the-threshold/106582684'
p756
aS'/v/justified-ancients-of-mu-mu/107105422'
p757
aS'/v/pony-keg/105801790'
p758
aS'/v/throbbing-gristle/105802373'
p759
aS'/v/steel-grill/106377858'
p760
aS'/v/whipsaw/106399171'
p761
aS'/v/tangled-up-in-blue/107105335'
p762
aS'/v/split-beaver/108056569'
p763
aS'/v/george-and-martha/105793801'
p764
aS'/v/air-guitar/105802381'
p765
aS'/v/hakuna-matata/105802365'
p766
aS'/v/corner-pockets/105802369'
p767
aS'/v/boschido/106935484'
p768
aS'/v/steel-pulse/107130341'
p769
aS'/v/crackmaster-lambada/108004639'
p770
aS'/v/sinsemilla/105946967'
p771
aS'/v/narlux/105972157'
p772
aS'/v/elvis-pharmacist/108681030'
p773
aS'/v/stems-and-seeds/105801925'
p774
aS'/v/mr-clean/105946984'
p775
aS'/v/bobs-your-uncle/105947041'
p776
aS'/v/crossing-the-delaware-with-your-pants-down/108361351'
p777
aS'/v/red-mms/105793805'
p778
aS'/v/party-in-your-pants/105795744'
p779
aS'/v/under-duress/107633439'
p780
aS'/v/duress/107633456'
p781
aS'/v/ride-em-cowboy/105793824'
p782
aS'/v/the-manxome-foe/107633468'
p783
aS'/v/easy-off/105795748'
p784
aS'/v/snooze-ya-lose/105972150'
p785
aS'/v/shrinking-ball-disease/108067355'
p786
aS'/v/opus-32/106432672'
p787
aS'/v/sunshine-buttress/107127972'
p788
aS'/v/mix-it-up/105947026'
p789
aS'/v/aeolachrmation/106889451'
p790
aS'/v/crepuscular-passions-of-the-blissfully-spanked/106889461'
p791
aS'/v/mortal-prying-in-the-v-shaped-realm/106889468'
p792
aS'/v/whale-of-the-wanapum/107378041'
p793
aS'/v/red-hot-chili-peppers/107532653'
p794
aS'/v/canadian-hand-job/107566123'
p795
aS'/v/go-cat-go/107532681'
p796
aS'/v/fire-starter/107566161'
p797
aS'/v/broken-glass/108762435'
p798
aS'/v/burning-spears/107378943'
p799
aS'/v/chapstick/107641581'
p800
aS'/v/another-notch-in-my-lipstick-case/107030847'
p801
aS'/v/preying-mantle/107550104'
p802
aS'/v/tease-me-please-me/106260060'
p803
aS'/v/thunder-run/105803870'
p804
aS'/v/monsters-under-my-bed/105803876'
p805
aS'/v/pornstar/106407157'
p806
aS'/v/high-five/106260028'
p807
aS'/v/ridin-sidesaddle/106540905'
p808
aS'/v/cold-cut-combo/106260042'
p809
aS'/v/fifteen-minutes-of-fame/107526868'
p810
aS'/v/the-pod/107526874'
p811
aS'/v/hang-overhang/106260003'
p812
aS'/v/stemmin-ms/106260021'
p813
aS'/v/the-jagged-edge/106432488'
p814
aS'/v/orangekist/106432502'
p815
aS'/v/scissor-man/106515771'
p816
aS'/v/starless-in-vantage/107572955'
p817
aS'/v/secret-passage/106515784'
p818
aS'/v/group-therapy/107572942'
p819
aS'/v/clipping-the-cornea/106681320'
p820
aS'/v/cornivorous/106681325'
p821
aS'/v/routecleaning-101-intro-to-mank/108850918'
p822
aS'/v/human-corn/107672244'
p823
aS'/v/decortication-in-a-clinical-stupor/107683090'
p824
aS'/v/husk-it-quick-my-cob-is-calling/108649922'
p825
aS'/v/a-lustrous-pall-enmeshed/106721209'
p826
aS'/v/lucky-dogs/107030831'
p827
aS'/v/y2k-crash/106681336'
p828
aS'/v/heel-higher-crescent/106681341'
p829
aS'/v/nazi-boyfriend/107559211'
p830
aS'/v/ten-a-cee-waltz/107852686'
p831
aS'/v/no-time-to-deviate/108350219'
p832
aS'/v/frank-black/107559205'
p833
aS'/v/oh-coulee-oh-coulee/106721175'
p834
aS'/v/one-move-blunder/108045688'
p835
aS'/v/black-belt-internet-spray-masters/108650231'
p836
aS'/v/camazonia/108017188'
p837
aS'/v/the-red-drill-rules/108650320'
p838
aS'/v/bob-is-real/108650332'
p839
aS'/v/rio-vista/108650217'
p840
aS'/v/newton-chips/108055222'
p841
aS'/v/crescendo-of-the-sarcophagus-breeding/107683101'
p842
aS'/v/the-creation-of-tranquility/106721160'
p843
aS'/v/weep-holes-on-a-sill/106721171'
p844
aS'/v/a-genius-bruing/106721202'
p845
aS'/v/imbibing-depths-reflective/108055248'
p846
aS'/v/psychogenic-fugue-thus-far/107683096'
p847
aS'/v/when-angels-dress-in-closets-deep/108043931'
p848
aS'/v/a-walk-in-the-park/107550227'
p849
aS'/v/corroding-through-nocturnal-silk/106904304'
p850
aS'/v/troublicious/107874857'
p851
aS'/v/incessant-wounds-still-ebbing-in-the-gloom-embers-bright/107550199'
p852
aS'/v/quarry-ography/107550241'
p853
aS'/v/awareness-drooling/107550295'
p854
aS'/v/euphoric-nothingness/106904324'
p855
aS'/v/powerpuff/107320532'
p856
aS'/v/violator/107573005'
p857
aS'/v/queen-of-the-gym/107572983'
p858
aS'/v/house-of-cards/107127961'
p859
aS'/v/carnival-ride/107442256'
p860
aS'/v/rod-of-god/107442251'
p861
aS'/v/falsies/107442268'
p862
aS'/v/heart-beat/107469883'
p863
aS'/v/a-game-of-inches/108149865'
p864
aS'/v/silhouettes/107670124'
p865
aS'/v/wild-dogs/107442275'
p866
aS'/v/carnage-in-the-temple-of-the-damned/107526849'
p867
aS'/v/wild-thing/107572973'
p868
aS'/v/monicas-dress/107670133'
p869
aS'/v/well-preserved/108649904'
p870
aS'/v/jigsaw-direct/107508876'
p871
aS'/v/through-the-roof/107510230'
p872
aS'/v/effortless/107510466'
p873
aS'/v/salty-dogs/107510221'
p874
aS'/v/tunnel-vision/107672204'
p875
aS'/v/serenity/107659257'
p876
aS'/v/saint-kristy/107659263'
p877
aS'/v/fur-elise/107659002'
p878
aS'/v/shanked/108055309'
p879
aS'/v/red-arete/107225103'
p880
aS'/v/heart-of-stone/107176077'
p881
aS'/v/cream/107286692'
p882
aS'/v/boltergeist/107286687'
p883
aS'/v/invasive-species/107286698'
p884
aS'/v/megafauna/107303042'
p885
aS'/v/snake-fingers/107303058'
p886
aS'/v/gridlock/106469043'
p887
aS'/v/steppenruf/106469056'
p888
aS'/v/magic-limbo-cha-cha/108272024'
p889
aS'/v/guides-day-off/108153454'
p890
aS'/v/arapilesian-dog/106513151'
p891
aS'/v/ingenue/107443768'
p892
aS'/v/prime-rib-of-goat/107730934'
p893
aS'/v/methow-inspirtation-route/108198051'
p894
aS'/v/sisyphus/107192123'
p895
aS'/v/missionarys-exposition/107731262'
p896
aS'/v/rhinovirus/107250565'
p897
aS'/v/barbies-are-buddhas-too/107005928'
p898
aS'/v/delayed-adolescence/105794262'
p899
aS'/v/tizzy/105867171'
p900
aS'/v/character-assassination/105794651'
p901
aS'/v/mid-life-crisis/105795131'
p902
aS'/v/rat-run/105948094'
p903
aS'/v/turkey-heads/105881257'
p904
aS'/v/falcore/105882608'
p905
aS'/v/right/107792011'
p906
aS'/v/center/107792019'
p907
aS'/v/a-perfect-storm/108111295'
p908
aS'/v/main-crack/106315348'
p909
aS'/v/y-crack/107180147'
p910
aS'/v/apprentice-route/106490286'
p911
aS'/v/the-diagonal-/106487044'
p912
aS'/v/jam-crack/106487089'
p913
aS'/v/bat-crack/106487057'
p914
aS'/v/heart-route/106488101'
p915
aS'/v/the-dihedral/106198776'
p916
aS'/v/rons-climb/106469095'
p917
aS'/v/hot-licks-/106487071'
p918
aS'/v/inside-corner/106258705'
p919
aS'/v/z-crack/106278633'
p920
aS'/v/don-quixote/105947133'
p921
aS'/v/the-rush-ins-are-coming/106468155'
p922
aS'/v/romancing-the-stone/106479453'
p923
aS'/v/back-tree-crack/106454727'
p924
aS'/v/black-corner/106458540'
p925
aS'/v/the-prow/106452902'
p926
aS'/v/the-hooker/106441233'
p927
aS'/v/changing-to-shadows/106592321'
p928
aS'/v/pit-lizard/106467582'
p929
aS'/v/gravalanche/108235982'
p930
aS'/v/fresh-produce/107179172'
p931
aS'/v/flogging-a-dead-horse/106836137'
p932
aS'/v/red-rum/106592325'
p933
aS'/v/flip-a-bitch-bear/108177442'
p934
aS'/v/bachelorsweek/107179167'
p935
aS'/v/the-roach/106273342'
p936
aS'/v/red-hair/107170498'
p937
aS'/v/overhangus-interruptus/106834750'
p938
aS'/v/naked-man/106845779'
p939
aS'/v/opiate-for-the-people/107179880'
p940
aS'/v/being-inferior/106468146'
p941
aS'/v/belly-rubber/106833271'
p942
aS'/v/dump-truck/106843130'
p943
aS'/v/spineless/108184920'
p944
aS'/v/bitten/107185323'
p945
aS'/v/crag-coordinator/106280170'
p946
aS'/v/chicken-spread/106296202'
p947
aS'/v/free-installation/106468186'
p948
aS'/v/stay-tuned/106476300'
p949
aS'/v/the-force/106476328'
p950
aS'/v/wings/106300397'
p951
aS'/v/klingon/106371408'
p952
aS'/v/pendulum/105834472'
p953
a.