(lp0
S'/v/time-square/105752890'
p1
aS'/v/awakenings/105761208'
p2
aS'/v/knot-head/105761223'
p3
aS'/v/the-opportunist/105761226'
p4
aS'/v/tinsel-town-aka-br-2/106370830'
p5
aS'/v/spike-aka-br-1/107153195'
p6
aS'/v/enterprise/105824687'
p7
aS'/v/it-takes-a-village/108408374'
p8
aS'/v/dough-boys/105752881'
p9
aS'/v/the-dune/105756946'
p10
aS'/v/gotham-city/105761211'
p11
aS'/v/new-route-aka-black-rib/106976845'
p12
aS'/v/zia/107072897'
p13
aS'/v/dead-tree-crack/105752860'
p14
aS'/v/the-list/105752878'
p15
aS'/v/armistice-aka-the-armisist/105760929'
p16
aS'/v/holy-sheath/105761898'
p17
aS'/v/taos-hum/106976790'
p18
aS'/v/dr-howards-digital-exam/107072920'
p19
aS'/v/slamdance-cosmopolis/107227969'
p20
aS'/v/suburbia/105749122'
p21
aS'/v/spinney-dan/105748702'
p22
aS'/v/energizer/105761724'
p23
aS'/v/porkus-non-grata/105749116'
p24
aS'/v/9-to-5/105750061'
p25
aS'/v/not-so-killer-bees/105752875'
p26
aS'/v/cactus-drop/105761046'
p27
aS'/v/apple-jam/105761067'
p28
aS'/v/river-of-rabbits/105761895'
p29
aS'/v/renaissance/105812408'
p30
aS'/v/high-pockets/106373223'
p31
aS'/v/pesko-sour/107844106'
p32
aS'/v/its-miller-time/105748699'
p33
aS'/v/regroovable/105748690'
p34
aS'/v/silverado/105755704'
p35
aS'/v/curious-george/105761007'
p36
aS'/v/grand-cru/105761115'
p37
aS'/v/hide-n-seek/105762393'
p38
aS'/v/liquid-pork/106162360'
p39
aS'/v/monster-man/107097914'
p40
aS'/v/bitten-by-a-manpris/107145017'
p41
aS'/v/limestone-lady/105752863'
p42
aS'/v/cactus-carrie/105760977'
p43
aS'/v/lime-and-punishment/106141568'
p44
aS'/v/the-apple-bites-back/105749119'
p45
aS'/v/vail-athletic-club/105755635'
p46
aS'/v/little-red-badge-of-courage/105755707'
p47
aS'/v/single-gun-theory/105755860'
p48
aS'/v/primal-urge/106767196'
p49
aS'/v/metropolis/105752887'
p50
aS'/v/turbo-road/105761934'
p51
aS'/v/slipper-queen/105764850'
p52
aS'/v/farts-of-horsemen/105753010'
p53
aS'/v/pocket-laureate/105753895'
p54
aS'/v/cumulocrimpus/105835613'
p55
aS'/v/phase-dance/105752464'
p56
aS'/v/little-mecca/105748687'
p57
aS'/v/barney/105749929'
p58
aS'/v/guilty-by-association/105752926'
p59
aS'/v/bourgeois-belay-slave-aka-bourgeois-belay-dogs/105749920'
p60
aS'/v/karma-mechanic/105749923'
p61
aS'/v/castrator/105753556'
p62
aS'/v/unknown/108695777'
p63
aS'/v/swinging-chimps/105749989'
p64
aS'/v/cyborg/105749980'
p65
aS'/v/pedestrian-gene-pool/105753562'
p66
aS'/v/village-idiot/105753565'
p67
aS'/v/no-vacancy/107711074'
p68
aS'/v/partners-in-crime/105749926'
p69
aS'/v/minimum-security/105749983'
p70
aS'/v/helter-skelter/105752923'
p71
aS'/v/supermax/106634104'
p72
aS'/v/freeform/105752917'
p73
aS'/v/bad-brains/105752920'
p74
aS'/v/onomatopoeia/105752929'
p75
aS'/v/solitary-confinement/106384938'
p76
aS'/v/coffee-bitch/105752989'
p77
aS'/v/portable-airplane/107302733'
p78
aS'/v/abracadabra/105752980'
p79
aS'/v/elvis-is-everywhere/105752986'
p80
aS'/v/induction-oven/107114205'
p81
aS'/v/humes-horror/107041112'
p82
aS'/v/detachable-pillar-arete/108971093'
p83
aS'/v/three-holes-make-a-face/108837330'
p84
aS'/v/in-the-region-of-the-butterfly-pump/105752983'
p85
aS'/v/iguana-breath/107302765'
p86
aS'/v/lizard-with-a-view/106094072'
p87
aS'/v/seaweed/105761010'
p88
aS'/v/unknown-510a/107254934'
p89
aS'/v/happy-nightmare-baby/105752992'
p90
aS'/v/sand-dollar/105761013'
p91
aS'/v/crabzilla/107546385'
p92
aS'/v/living-in-a-vacuum/106594675'
p93
aS'/v/wild-kippers/107254915'
p94
aS'/v/soluble-fish/105952296'
p95
aS'/v/tuna-tuna-tuna/105952301'
p96
aS'/v/wading-through-a-ventilator/105952306'
p97
aS'/v/call-to-arms/105969708'
p98
aS'/v/period-piece/105755854'
p99
aS'/v/true-to-traditiontuckers-faith/105756613'
p100
aS'/v/the-boss-method/105755578'
p101
aS'/v/first-blood/105764676'
p102
aS'/v/original-route/105927036'
p103
aS'/v/the-baroque-period/106157707'
p104
aS'/v/lamonts-period-/106990678'
p105
aS'/v/prima-nocta-/107514316'
p106
aS'/v/red-dog/105756586'
p107
aS'/v/period-epic/105758772'
p108
aS'/v/dumb-waiter/105752893'
p109
aS'/v/smart-server/105803148'
p110
aS'/v/turbo-charged-inter-cooled-meat-machine/105748969'
p111
aS'/v/lick-my-love-pump-aka-love-pump/105752896'
p112
aS'/v/bat-crack/105756616'
p113
aS'/v/pueblo-gringos/105761514'
p114
aS'/v/the-big-chill/105748978'
p115
aS'/v/flashback-to-acid-beach/105752899'
p116
aS'/v/slender-fungus/105752905'
p117
aS'/v/after-dark/107042042'
p118
aS'/v/menses/105748993'
p119
aS'/v/krakatoa/105754045'
p120
aS'/v/jumbo-pumping-love/105764310'
p121
aS'/v/light-days/105755857'
p122
aS'/v/liquid-affair/105752902'
p123
aS'/v/fever/105760989'
p124
aS'/v/weed-n-feed/105761907'
p125
aS'/v/no-passion-for-fashion/105748990'
p126
aS'/v/lunch-at-the-y/105762336'
p127
aS'/v/thirteen-engines/105748975'
p128
aS'/v/graceland/105752908'
p129
aS'/v/first-strike/105754039'
p130
aS'/v/shelfs-worst-route/105752911'
p131
aS'/v/chiba-chiba/105754042'
p132
aS'/v/a-sheep-in-wolfs-clothing/105800940'
p133
aS'/v/sundogs/105752872'
p134
aS'/v/cosmic-thing/105754030'
p135
aS'/v/stratabulge/105763344'
p136
aS'/v/demartini/106990686'
p137
aS'/v/marching-out/106175966'
p138
aS'/v/protect-the-king/106165188'
p139
aS'/v/the-bobbit-effect/105753025'
p140
aS'/v/anguish-and-fear/106126236'
p141
aS'/v/los-pepes/106160862'
p142
aS'/v/morrocan-roll/105753022'
p143
aS'/v/john-cruiser-meloncrimp/105753028'
p144
aS'/v/stalking-fred/105755644'
p145
aS'/v/block-party/105755851'
p146
aS'/v/soldier-without-faith/106349236'
p147
aS'/v/red-hot-chili-powder/108316993'
p148
aS'/v/mother-of-invention/105761049'
p149
aS'/v/morpheus/105969725'
p150
aS'/v/ludlows-massacre/107072848'
p151
aS'/v/magnum-gropus/105969721'
p152
aS'/v/monet/105755638'
p153
aS'/v/mm/105758464'
p154
aS'/v/motif/105762333'
p155
aS'/v/the-mural/105752914'
p156
aS'/v/pi/105756187'
p157
aS'/v/the-mutant/105762390'
p158
aS'/v/super-phrique/106129783'
p159
aS'/v/forearm-and-head/107228213'
p160
aS'/v/you-were-meant-for-me/106332507'
p161
aS'/v/ragnar/109676254'
p162
aS'/v/pretty-boy-floyd/106316700'
p163
aS'/v/ma-barker/106978872'
p164
aS'/v/the-apple-cracks/106978922'
p165
aS'/v/unknown-57/107065907'
p166
aS'/v/purple-packer-smacker/108290650'
p167
aS'/v/peking/105761727'
p168
aS'/v/pig-city-nights/106179378'
p169
aS'/v/large-marge/106749096'
p170
aS'/v/heretic/106990700'
p171
aS'/v/ladies-night-in-buffalo/106994524'
p172
aS'/v/unsaid-the-aka-the-brothel/106994606'
p173
aS'/v/poncho-and-the-three-perverts/107018044'
p174
aS'/v/cj--the-lesbian-seagull/107154201'
p175
aS'/v/loves-me-like-a-rock/107859289'
p176
aS'/v/poncho/107930835'
p177
aS'/v/concentrated-weirdness/105753448'
p178
aS'/v/le-petit-verdon/107106797'
p179
aS'/v/alcohollica-/106990691'
p180
aS'/v/razor-burn-aka-stewarts-slab/107358992'
p181
aS'/v/black-hole-sun/107359008'
p182
aS'/v/doggie-style/105864279'
p183
aS'/v/pion-slalom/106994597'
p184
aS'/v/shelfish/106276346'
p185
aS'/v/dillinger/106276350'
p186
aS'/v/stranger-in-moscow/106685802'
p187
aS'/v/let-me-out/106744592'
p188
aS'/v/the-don-show/106990696'
p189
aS'/v/sty-in-the-sky/107930809'
p190
aS'/v/primal-scream/105752626'
p191
aS'/v/bc/105753451'
p192
aS'/v/from-russia-with-love/105763089'
p193
aS'/v/baby-face-nelson/106279330'
p194
aS'/v/tired-arms-recovery-program-tarp/106362564'
p195
aS'/v/gambino/107018884'
p196
aS'/v/pink-torpedo/106994501'
p197
aS'/v/lefty/107019420'
p198
aS'/v/bum-cakes-formerly-listed-as-buns/107065893'
p199
aS'/v/misery/107161309'
p200
aS'/v/deconstructing-harry/108844974'
p201
aS'/v/the-sweepings/106956830'
p202
aS'/v/shady-character/106994617'
p203
aS'/v/new-comer-aka-new-corner/107018131'
p204
aS'/v/2010a/107019385'
p205
aS'/v/tuff-shed-aka-bc/107025294'
p206
aS'/v/abu-simbel-/107161340'
p207
aS'/v/goodfellas/107359044'
p208
aS'/v/who-asked-you/107488333'
p209
aS'/v/mighty-aphrodite/109679786'
p210
aS'/v/jasonbeckercom/106169770'
p211
aS'/v/crab-nation/106170472'
p212
aS'/v/ussen/108175274'
p213
aS'/v/energy-before-ecstasy/105752833'
p214
aS'/v/trundle/107106829'
p215
aS'/v/will-purr-for-treats/106694036'
p216
aS'/v/war-in-the-banks/105752836'
p217
aS'/v/b-flat/105763350'
p218
aS'/v/a-sharp/105763353'
p219
aS'/v/alfalfa-omega/106161173'
p220
aS'/v/ripped/106363085'
p221
aS'/v/knot-too-many-roaches/107018099'
p222
aS'/v/season-down-under/107025270'
p223
aS'/v/project-focus/107930824'
p224
aS'/v/mismatched-partners/106029865'
p225
aS'/v/lick-and-a-promise/107454465'
p226
aS'/v/bambi-meets-godzilla/105748987'
p227
aS'/v/richter-scale/105750016'
p228
aS'/v/aerial-solution/105750043'
p229
aS'/v/aspiring-frog/105864359'
p230
aS'/v/stomach-stapler/105942799'
p231
aS'/v/mighty-mouse/106281444'
p232
aS'/v/rock-frog/106565107'
p233
aS'/v/leverage/106765885'
p234
aS'/v/scarface/107799291'
p235
aS'/v/ramm/105867674'
p236
aS'/v/heaven-is-waiting/106990704'
p237
aS'/v/dust-lust/105748981'
p238
aS'/v/binge-and-purge/105750022'
p239
aS'/v/2150-ad/105750055'
p240
aS'/v/stick-it/105752623'
p241
aS'/v/welcome-to-shelf-road/105761733'
p242
aS'/v/the-cat-ate-my-homework/106694020'
p243
aS'/v/lynch-mob/107403063'
p244
aS'/v/once-upon-a-time/105750025'
p245
aS'/v/number-1-super-guy/105758107'
p246
aS'/v/dancin-shoes/106029842'
p247
aS'/v/flesh-tuxedo/106161870'
p248
aS'/v/puking-yuppies/106423153'
p249
aS'/v/metamusso/106912548'
p250
aS'/v/gen-x-ation-aka-musso-route/106963977'
p251
aS'/v/harry/107488311'
p252
aS'/v/soprano/108538316'
p253
aS'/v/stormy-weather/105753079'
p254
aS'/v/lime-street/105752587'
p255
aS'/v/ice-cream-hangover/105753082'
p256
aS'/v/ethics-what-ethics/106032361'
p257
aS'/v/disciples-of-hell/106621265'
p258
aS'/v/dave-dangle/105750019'
p259
aS'/v/back-to-the-future/105750058'
p260
aS'/v/unusual-weather/105753076'
p261
aS'/v/lost-planet-airman/105750052'
p262
aS'/v/thunder-tactics/105752362'
p263
aS'/v/tribal-boundary/105752629'
p264
aS'/v/hostile-crankover/105753865'
p265
aS'/v/staying-power/105759516'
p266
aS'/v/generation-x/107380855'
p267
aS'/v/starving-hippies/106423168'
p268
aS'/v/machine-gun-kelly/108290662'
p269
aS'/v/taping-tendons/105750049'
p270
aS'/v/emperors-robe/105752584'
p271
aS'/v/no-future-for-the-timid/106043868'
p272
aS'/v/cerebral-brain-freeze/106997777'
p273
aS'/v/no-rest-for-the-wicked/105750037'
p274
aS'/v/living-in-america/105750046'
p275
aS'/v/neopolitan-headrush/105759519'
p276
aS'/v/heavy-weather/105750028'
p277
aS'/v/aoxamoxoa/105752590'
p278
aS'/v/sparkle-in-the-rain/105763347'
p279
aS'/v/why-left/107098593'
p280
aS'/v/future-fossil/105750040'
p281
aS'/v/surreal-estate/105761463'
p282
aS'/v/power-broker/105763782'
p283
aS'/v/suedehead/106327329'
p284
aS'/v/le-pincher/105923983'
p285
aS'/v/black-mamba-arete/105752779'
p286
aS'/v/ga-stoned-again/105761217'
p287
aS'/v/new-rule/106132707'
p288
aS'/v/there-goes-the-neighborhood/106374515'
p289
aS'/v/arrowhead-spire/108077936'
p290
aS'/v/trout-fishing/106145438'
p291
aS'/v/pinhead/105752785'
p292
aS'/v/easy-cheese-aka-trout-fishing-in-america/105762234'
p293
aS'/v/the-crack-of-dawn/105752788'
p294
aS'/v/our-bosch-of-immaculate-conception/105762222'
p295
aS'/v/dizzi-lizzi/106929493'
p296
aS'/v/shes-got-a-full-set-of-camalots/105761604'
p297
aS'/v/trailer-park-logic/105762243'
p298
aS'/v/shorty-bob/105827564'
p299
aS'/v/paradise-regained/106376339'
p300
aS'/v/up-valley-goes-downtown/105752782'
p301
aS'/v/urban-fringe/105756412'
p302
aS'/v/jane-fonda-warm-up/107924777'
p303
aS'/v/morning-stretch/105758482'
p304
aS'/v/crystal/105758512'
p305
aS'/v/st-pattys-slab/105761394'
p306
aS'/v/natty-dread/105862484'
p307
aS'/v/cask-strength/106417009'
p308
aS'/v/the-great-escape/105758497'
p309
aS'/v/solar-flex/105763590'
p310
aS'/v/the-raw-and-the-roasted/106015558'
p311
aS'/v/pulley-mammoth/105827570'
p312
aS'/v/tomato-tomotto/106471624'
p313
aS'/v/cimmaron-lanes/105752263'
p314
aS'/v/arnold-arnold/105753181'
p315
aS'/v/in-the-morning-youll-be-mine/106015608'
p316
aS'/v/the-gym-arete/105750031'
p317
aS'/v/spontaneous-combustion/105763593'
p318
aS'/v/the-new-vernacular/105862489'
p319
aS'/v/the-smoking-pickle/106165069'
p320
aS'/v/the-real-deal/106297712'
p321
aS'/v/stud-with-a-rug/106471617'
p322
aS'/v/three-stooges/105761601'
p323
aS'/v/the-ejection-seat/105753169'
p324
aS'/v/bubbas-belly-aka-the-example-simulator/105758467'
p325
aS'/v/bone-n-vein/105759207'
p326
aS'/v/lockdown/105762204'
p327
aS'/v/gym-arete-direct/106457940'
p328
aS'/v/ejection-generation/107400560'
p329
aS'/v/my-generation/105754750'
p330
aS'/v/head-cheese/105755518'
p331
aS'/v/the-example/105754087'
p332
aS'/v/deeper-shade-of-soul/105754144'
p333
aS'/v/alexis-climb/105755560'
p334
aS'/v/crynoid-corner/105753616'
p335
aS'/v/you-show-me-your-heavy-weapon-ill-show-you-mine/106138337'
p336
aS'/v/kalahari-sidewinder/105758988'
p337
aS'/v/beach-ball/106141358'
p338
aS'/v/beef-cake-formula/106920490'
p339
aS'/v/ians-climb/105759165'
p340
aS'/v/red-giant/105752842'
p341
aS'/v/lacholla-jackson/105753220'
p342
aS'/v/ol-47/105755509'
p343
aS'/v/oscar-de-la-cholla/105755515'
p344
aS'/v/chompin-at-the-cholla/105755956'
p345
aS'/v/white-punks-on-pockets/105759129'
p346
aS'/v/bur-har-bur/106979234'
p347
aS'/v/commitment/105803112'
p348
aS'/v/solar-eclipse/106164020'
p349
aS'/v/cellulite-district/106264160'
p350
aS'/v/kodachrome/106344281'
p351
aS'/v/shelf-pride/107447472'
p352
aS'/v/too-much-beef-and-not-enough-meat/105755554'
p353
aS'/v/the-raven/105755863'
p354
aS'/v/risky-business/105759405'
p355
aS'/v/part-muffalo/105761646'
p356
aS'/v/fully-equipped/106259786'
p357
aS'/v/morning-joe/107414229'
p358
aS'/v/black-slabbeth/105755512'
p359
aS'/v/banana-split/105758982'
p360
aS'/v/bombodido/106998598'
p361
aS'/v/half-breed/105865078'
p362
aS'/v/totally-blonde/106142945'
p363
aS'/v/turkeys-bleak/106164016'
p364
aS'/v/fishisms/105758961'
p365
aS'/v/dihedrus/105752839'
p366
aS'/v/six-more-bottles-of-basco/105802979'
p367
aS'/v/crimpson-candy/105759108'
p368
aS'/v/quarterback/105759681'
p369
aS'/v/la-temperatura-de-shelf/105759687'
p370
aS'/v/early-bird/105802985'
p371
aS'/v/two-for-one/105803131'
p372
aS'/v/cheeseburger-in-paradise/106141750'
p373
aS'/v/the-killer-toupee/106097030'
p374
aS'/v/total-recount/106690556'
p375
aS'/v/high-heeled-tittty-twister/105754630'
p376
aS'/v/awesome-offwidthin/106690538'
p377
aS'/v/jamuary/107447515'
p378
aS'/v/new-world-order/107447499'
p379
aS'/v/third-stage/105752845'
p380
aS'/v/amiga/105755506'
p381
aS'/v/christmas-tree/105758991'
p382
aS'/v/the-stand/105759684'
p383
aS'/v/richard-simmons-tanktop/105761649'
p384
aS'/v/three-quarter-ton/105809702'
p385
aS'/v/wadsworth-boulevard/105753538'
p386
aS'/v/blackmans-burden/105754201'
p387
aS'/v/politically-incorrect/105754477'
p388
aS'/v/relampago/105759111'
p389
aS'/v/poquito-mas/105759690'
p390
aS'/v/squeeze-the-moment/105760995'
p391
aS'/v/slicer/105761925'
p392
aS'/v/spray-lord/106103900'
p393
aS'/v/barbed-wire-love/106103931'
p394
aS'/v/glass-babies/106107557'
p395
aS'/v/redmans-burden/107379980'
p396
aS'/v/misalignment/106140506'
p397
aS'/v/red-eclipse/105752194'
p398
aS'/v/chunky-monkey/105753553'
p399
aS'/v/the-book-of-dude-aronomy/105759024'
p400
aS'/v/are-you-experiential/105753547'
p401
aS'/v/great-expectations/105753685'
p402
aS'/v/thumbs-up/105754549'
p403
aS'/v/hey-pueblo-gringo-got-a-hanger/105755503'
p404
aS'/v/dont-be-messin-with-ma-moves/105755932'
p405
aS'/v/hero-driver/105756544'
p406
aS'/v/the-alignment/105759021'
p407
aS'/v/cactus-cliff-addict/105862584'
p408
aS'/v/cobra/105869371'
p409
aS'/v/candy-for-big-kids/106032103'
p410
aS'/v/out-there-take-anything/106036908'
p411
aS'/v/fast-food-nation/106070395'
p412
aS'/v/axis-of-evil/106329028'
p413
aS'/v/just-thesenga-it/105759750'
p414
aS'/v/i-lean/105830383'
p415
aS'/v/gabby/105932939'
p416
aS'/v/bionic-minnow/106036914'
p417
aS'/v/blond-princes/106103917'
p418
aS'/v/six-pack-o-whoop-ass/106696458'
p419
aS'/v/muscle-beach/105758910'
p420
aS'/v/funkdemental/105754546'
p421
aS'/v/dereliction-affliction/105754837'
p422
aS'/v/i-claudius/105757618'
p423
aS'/v/illegal-smile/105929386'
p424
aS'/v/escalando/105754840'
p425
aS'/v/fantasia/105753880'
p426
aS'/v/leisure-class/105754108'
p427
aS'/v/affluenza/105754834'
p428
aS'/v/whitemans-burden/105755668'
p429
aS'/v/the-reach-around/106157768'
p430
aS'/v/midget-toss/105754696'
p431
aS'/v/hurricane-hinzi/105758934'
p432
aS'/v/jumpin-the-gun/105752293'
p433
aS'/v/lats-dont-have-feelings/105752329'
p434
aS'/v/under-a-blood-red-wall/105752332'
p435
aS'/v/gravitations/105752389'
p436
aS'/v/almost-gothic/105755701'
p437
aS'/v/puff-daddy/105759444'
p438
aS'/v/childs-play/105762324'
p439
aS'/v/almost-french/105827579'
p440
aS'/v/pick-pocket/105753541'
p441
aS'/v/paleolithic-tool-traditions/105754831'
p442
aS'/v/blade-runner/105762327'
p443
aS'/v/super-suka/105765036'
p444
aS'/v/world-peace/106696451'
p445
aS'/v/the-good-red-road/106417674'
p446
aS'/v/new-ethics/106650555'
p447
aS'/v/the-usual-suspects/106684684'
p448
aS'/v/legend-on-the-fall/105758670'
p449
aS'/v/cro-magnum/105749965'
p450
aS'/v/tits-up/105752335'
p451
aS'/v/working-man/105755665'
p452
aS'/v/short-mans-burden/105759003'
p453
aS'/v/hot-beach/105761523'
p454
aS'/v/divinity-school/105761916'
p455
aS'/v/glue-slippage/105765030'
p456
aS'/v/afterburner/106162453'
p457
aS'/v/institutional-meat/106979248'
p458
aS'/v/im-having-a-vision/107997740'
p459
aS'/v/the-french-are-here/105752392'
p460
aS'/v/da-fly/105755521'
p461
aS'/v/cure-for-the-common-crimp/106090317'
p462
aS'/v/manly-bulges/106409595'
p463
aS'/v/carnage-aka-wild-virus/106692731'
p464
aS'/v/beginners-outing/106004029'
p465
aS'/v/lumina/105752422'
p466
aS'/v/unknown/105763086'
p467
aS'/v/fight-or-flight/105863118'
p468
aS'/v/missing-hangers/105752728'
p469
aS'/v/shelf-road-virgin/105762060'
p470
aS'/v/black-n-dicey/105763071'
p471
aS'/v/puddle-of-holes/105763077'
p472
aS'/v/27-tons/106004015'
p473
aS'/v/hangers-regained/106281201'
p474
aS'/v/teenage-wristband/105762054'
p475
aS'/v/edge-of-fright/105763092'
p476
aS'/v/bonnie/105752722'
p477
aS'/v/fragile/105970088'
p478
aS'/v/corner-pockets/106904385'
p479
aS'/v/trolling-for-holds/105752725'
p480
aS'/v/counter-balance/106169015'
p481
aS'/v/porkus-procurement/105752731'
p482
aS'/v/thank-heaven-for-little-girls/105828430'
p483
aS'/v/enchanted-porkfist/105752419'
p484
aS'/v/muted-by-reality/105754711'
p485
aS'/v/dark-side-roofs/106127698'
p486
aS'/v/the-cracks-on-top/105753034'
p487
aS'/v/crown-of-thorns-aka-box-lunch-aka-lou-ravens-rest/105758461'
p488
aS'/v/route-fluffer/105762057'
p489
aS'/v/clyde/105752719'
p490
aS'/v/animatronic/105762399'
p491
aS'/v/suspender-man/105752458'
p492
aS'/v/two-hearts/105754705'
p493
aS'/v/viaggro/105756280'
p494
aS'/v/redlined/106004001'
p495
aS'/v/face-the-music/105863104'
p496
aS'/v/asym/106184602'
p497
aS'/v/the-welcoming/106853354'
p498
aS'/v/punjabi/105754708'
p499
aS'/v/call-from-overseas/105754483'
p500
aS'/v/levels-of-the-game/106164996'
p501
aS'/v/el-guapo/106453341'
p502
aS'/v/the-plum/106760423'
p503
aS'/v/blank-frank/105754480'
p504
aS'/v/the-audition/105756289'
p505
aS'/v/kashmere/105764652'
p506
aS'/v/the-eagle-has-landed/105756292'
p507
aS'/v/whisper-of-immortality/105752821'
p508
aS'/v/sticks-and-stone-may-break-my-bones/105752830'
p509
aS'/v/the-needle-lies/105752809'
p510
aS'/v/little-boys-with-power-toys/105864295'
p511
aS'/v/how-ed-lost-his-mind/107857955'
p512
aS'/v/mark-finds-bob-bolting/105752803'
p513
aS'/v/welcome-to-the-machine/105752806'
p514
aS'/v/john-wayne-never-wore-boxer-shorts/106556443'
p515
aS'/v/bachar-up-against-the-wall-and-kauk-him/105752812'
p516
aS'/v/emc2/106180532'
p517
aS'/v/cactus-rose/106556460'
p518
aS'/v/take-the-skinheads-bowling/105752827'
p519
aS'/v/skinheads-big-night-out/105752824'
p520
aS'/v/barbecueing-traditions/106556427'
p521
aS'/v/chip-off-the-block/105761877'
p522
aS'/v/fire-it-up/105865038'
p523
aS'/v/my-testosterone-poisoned-friend/105969736'
p524
aS'/v/sunrise-arete/105969765'
p525
aS'/v/tottering-into-antiquity/107630612'
p526
aS'/v/flight-simulator/105869357'
p527
aS'/v/lucy-in-the-sky/105969772'
p528
aS'/v/stinger/105969777'
p529
aS'/v/tryptophan/106317977'
p530
aS'/v/stress-rehearsal/105865056'
p531
aS'/v/illusions/105753085'
p532
aS'/v/holiday-in-cambodia/105754054'
p533
aS'/v/easy-money/105969759'
p534
aS'/v/splitting-the-stone/105761550'
p535
aS'/v/pubic-zirconium/106281169'
p536
aS'/v/jewel-of-the-wild/105753214'
p537
aS'/v/potato-chipper/105969754'
p538
aS'/v/ewetopia/106042105'
p539
aS'/v/whats-the-combo/106317991'
p540
aS'/v/family-jewels/105969742'
p541
aS'/v/14-carats/105761547'
p542
aS'/v/the-gem/106281135'
p543
aS'/v/the-hourglass/106721305'
p544
aS'/v/cheers/105759084'
p545
aS'/v/damn-right-ive-got-the-moves/105759105'
p546
aS'/v/sugar-and-spice/106330589'
p547
aS'/v/stone-of-ignorance/105759102'
p548
aS'/v/travis-is-sole-king/105756409'
p549
aS'/v/toxxxic-entertainment/105759594'
p550
aS'/v/20th-century-man/105758676'
p551
aS'/v/short--sweet/106582587'
p552
aS'/v/tree-trimmer/106980525'
p553
aS'/v/down-n-dirty/106123578'
p554
aS'/v/nalalator/105758673'
p555
aS'/v/access-all-areas/106036927'
p556
aS'/v/tractatus/105759081'
p557
aS'/v/green-grenade/106692671'
p558
aS'/v/cornerstone/105862459'
p559
aS'/v/return-of-the-headhunters/106036922'
p560
aS'/v/the-new-philanthropists/105763323'
p561
aS'/v/purple-toe-nails/105763212'
p562
aS'/v/straight-rocket/106643979'
p563
aS'/v/quoting-yoda/107478761'
p564
aS'/v/the-hurricane/105753577'
p565
aS'/v/the-rising/105758985'
p566
aS'/v/de-gaulle-syndrome/107426110'
p567
aS'/v/weapons-of-mass-arousal/107901794'
p568
aS'/v/i-like-it-black/106135301'
p569
aS'/v/the-lifuss-farm-tools/106032117'
p570
aS'/v/la-primera-vez/106919039'
p571
aS'/v/churning-in-the-cheese/106919060'
p572
aS'/v/under-the-milky-way/106059659'
p573
aS'/v/king-coral/106059648'
p574
aS'/v/makadon/107088968'
p575
aS'/v/the-function/106032123'
p576
aS'/v/boulder-hypocricy/106919086'
p577
aS'/v/nyorgai/106782158'
p578
aS'/v/houses-of-the-holy/106919170'
p579
aS'/v/awethu/105949994'
p580
aS'/v/forty-two-and-no-rinkhals/105950010'
p581
aS'/v/funny-money/105817042'
p582
aS'/v/nickel--dime/106312441'
p583
aS'/v/chump-change/105950007'
p584
aS'/v/payment-in-pump/105759204'
p585
aS'/v/cash-in-the-vault/106106530'
p586
aS'/v/guns-in-the-vault/106691692'
p587
aS'/v/rum-tum-tuggernaughts/107067325'
p588
a.