(lp0
I105990845
aI11228
aI107268688
aI108202763
aI107301514
aI105821238
aI108894743
aI11802
aI106031999
aI11115
aI106058154
aI106852393
aI106830645
aI13489
aI108355917
aI106974389
aI106403737
aI105935039
aI107555169
aI106268558
aI106095026
aI107178254
aI106928886
aI106071787
aI106728177
aI105787348
aI106616366
aI106740382
aI10996
aI107230627
aI105829522
aI105941782
aI105791779
aI105978997
aI106487856
aI106610639
aI105789759
aI105973336
aI106243568
aI106470185
aI10405
aI105817062
aI106069168
aI107508091
aI15142
aI107175792
aI11278
aI107059069
aI107277139
aI106601971
aI109385864
aI105842259
aI106604572
aI107342057
aI107492957
aI105949405
aI106020445
aI106292269
aI106838555
aI108191858
aI105807147
aI11690
aI12522
aI106781575
aI105800489
aI12121
aI106013776
aI106531595
aI106030520
aI106075659
aI106145409
aI107435282
aI106389004
aI12988
aI106182300
aI108093105
aI106489544
aI107126711
aI107137428
aI105795871
aI106417094
aI108031645
aI106194391
aI107767801
aI106113062
aI105844582
aI106958966
aI107347938
aI105804052
aI106150571
aI109816235
aI106158624
aI106215502
aI11916
aI106360234
aI107739229
aI106536997
aI105908373
aI106838734
aI105795015
aI12407
aI105934985
aI107807462
aI105822848
aI107591659
aI108462136
aI106257649
aI105930252
aI14977
aI106251374
aI105961696
aI14568
aI106646308
aI10143
aI107402621
aI106776142
aI107236381
aI105887189
aI105889415
aI106054402
aI106346493
aI106088454
aI105889270
aI107763339
aI106971875
aI107153125
aI105871767
aI105913057
aI105913936
aI108181716
aI106394111
aI106146571
aI107387693
aI105987922
aI106103271
aI108187975
aI106527045
aI107390101
aI106784621
aI105898385
aI15116
aI105856868
aI106876126
aI106134707
aI106446644
aI106117267
aI105899017
aI107529159
aI107852661
aI105881696
aI109101477
aI106125724
aI109767025
aI106951875
aI106593285
aI108110667
aI106046804
aI105851792
aI10315
aI106957265
aI10762
aI106121156
aI107820434
aI12494
aI105832216
aI106486112
aI107639626
aI105788208
aI105874611
aI106434221
aI106344939
aI108257055
aI106187247
aI106666369
aI105835284
aI107441578
aI106306579
aI108653005
aI107919778
aI106794436
aI106467008
aI12194
aI106081147
aI107619140
aI11029
aI108032974
aI107612971
aI107904140
aI106022986
aI107851075
aI106389541
aI108386412
aI106856071
aI108547663
aI106670517
aI106119518
aI106858723
aI106172718
aI14723
aI10186
aI105906559
aI106001645
aI106151063
aI107946583
aI108123128
aI11331
aI109986571
aI107222279
aI107138006
aI107702638
aI108363423
aI107002528
aI108244717
aI107843449
aI108048345
aI109645729
aI105815147
aI107468926
aI108886435
aI106271741
aI105789175
aI106102123
aI105904878
aI106098789
aI106160547
aI106253603
aI107629487
aI106299993
aI10610
aI11926
aI105867264
aI107185927
aI106059834
aI107079403
aI107693628
aI10681
aI106538248
aI106810689
aI106555971
aI106273389
aI106050516
aI12690
aI105972105
aI106018444
aI108237198
aI105811146
aI107894478
aI108367150
aI106263368
aI106507754
aI105887867
aI107768941
aI106874543
aI106785304
aI105812440
aI105963968
aI105879342
aI106736701
aI106714906
aI107768989
aI14248
aI105797692
aI105973110
aI106710887
aI105934900
aI13658
aI106087077
aI105787518
aI105826399
aI106413021
aI14595
aI107561935
aI107656938
aI105975214
aI105841498
aI106411080
aI106397425
aI106985791
aI106441937
aI106136679
aI109285734
aI105899248
aI107869180
aI106868421
aI106348407
aI105884543
aI107515236
aI106129363
aI10244
aI106156272
aI108088043
aI107671020
aI14015
aI106751248
aI106897206
aI11212
aI105851541
aI107638654
aI106262777
aI106910356
aI106126874
aI107053533
aI105787381
aI105792986
aI108711756
aI105895326
aI105805825
aI10129
aI106688497
aI105885115
aI105994000
aI107065676
aI106494476
aI108142594
aI12258
aI107835621
aI107723931
aI107116332
aI106202599
aI108307042
aI107561580
aI105902903
aI13914
aI106055829
aI106697740
aI105964496
aI105927660
aI107841428
aI106999733
aI106347425
aI106192059
aI106720416
aI105886022
aI105986261
aI106506620
aI108282657
aI107431114
aI105828100
aI107745631
aI106205646
aI106907209
aI106809052
aI106526731
aI105870586
aI105805486
aI106681424
aI106596992
aI105790534
aI108033733
aI12117
aI105994004
aI107093945
aI106449525
aI10146
aI107217541
aI10380
aI14330
aI106193445
aI107870857
aI105798365
aI105813725
aI105937220
aI107536111
aI107011842
aI106089213
aI107254662
aI10382
aI106449553
aI108157281
aI105990793
aI106142131
aI107813980
aI108023481
aI106034624
aI106006184
aI106147267
aI10270
aI107016185
aI106823112
aI105805707
aI106822110
aI105941332
aI10185
aI105794408
aI106009899
aI105938601
aI106637131
aI105841324
aI107297633
aI107075119
aI106967283
aI106358364
aI106794218
aI10445
aI105876980
aI105797645
aI105998198
aI107742566
aI105860008
aI105857129
aI106022334
aI108092104
aI106805249
aI106290147
aI106433124
aI106443331
aI105787493
aI107740836
aI105868316
aI10150
aI105885105
aI106560803
aI106224334
aI14036
aI106308715
aI107630669
aI107698881
aI106110467
aI106902402
aI106874511
aI105797501
aI106884299
aI106808076
aI107588101
aI11048
aI107780633
aI106077459
aI105912775
aI107417154
aI106235451
aI105849814
aI109152722
aI13115
aI106764476
aI105787222
aI108099571
aI107240862
aI106288563
aI106831774
aI105980469
aI106816037
aI12502
aI105802830
aI106333851
aI107377680
aI105790750
aI106588555
aI14537
aI105846604
aI105812812
aI106351162
aI106702886
aI108082584
aI106893421
aI105945438
aI107325508
aI106373070
aI105877184
aI105839151
aI10788
aI14098
aI106430658
aI106160164
aI105946742
aI106945872
aI106842933
aI106201630
aI106035843
aI107226326
aI106399472
aI107609988
aI106778451
aI108717487
aI11563
aI11622
aI106558554
aI107589897
aI12622
aI105890157
aI12237
aI107890277
aI106522843
aI106974860
aI10121
aI106590583
aI107238223
aI105929502
aI107644982
aI15023
aI106139652
aI105942841
aI13227
aI105823335
aI14215
aI106561728
aI107860315
aI106108233
aI108245758
aI11327
aI105943577
aI15093
aI13486
aI11287
aI106755421
aI105829161
aI106119950
aI105816899
aI105846944
aI107085584
aI105796945
aI108195060
aI107493811
aI106379824
aI107262000
aI105809225
aI105823132
aI106139012
aI106238291
aI106158262
aI106119061
aI107326021
aI107186883
aI106740073
aI11729
aI107260723
aI11181
aI105815295
aI105837552
aI106435914
aI105967115
aI105790555
aI105964182
aI108222002
aI107400819
aI106503119
aI106422708
aI106525848
aI106738886
aI105800279
aI107088515
aI106662131
aI106569451
aI106662918
aI13937
aI106441684
aI10565
aI109006073
aI11047
aI105819862
aI10431
aI106736869
aI106887229
aI105936209
aI106554608
aI10271
aI105886042
aI106468895
aI105927097
aI106220386
aI14213
aI106731930
aI12448
aI105855048
aI105859992
aI106681644
aI11609
aI105828656
aI14004
aI14201
aI10173
aI107477790
aI107304112
aI107349767
aI107867671
aI105953801
aI106224522
aI107347295
aI105903151
aI105892598
aI11156
aI107246852
aI11129
aI108145511
aI108076266
aI107658399
aI107464151
aI105947198
aI106832884
aI106257523
aI107147681
aI107737637
aI11466
aI12084
aI10232
aI105801687
aI107902567
aI11884
aI107459332
aI15043
aI108121701
aI106762873
aI106692154
aI106512094
aI106916096
aI105794043
aI106816129
aI106202961
aI12023
aI14128
aI105932490
aI12513
aI105833953
aI106455894
aI106744745
aI10481
aI12549
aI10393
aI105816622
aI107174945
aI106874601
aI106325770
aI107518458
aI106037831
aI108419580
aI106841465
aI106714648
aI106247789
aI106708690
aI105863852
aI106607660
aI106159111
aI107475857
aI106365141
aI106134237
aI106723303
aI11246
aI106712274
aI107563159
aI107137180
aI106058125
aI107588308
aI106860568
aI13111
aI106423391
aI106726952
aI106452465
aI13119
aI107062221
aI107771322
aI106297607
aI106861594
aI105953485
aI105954758
aI107178013
aI107075506
aI106489136
aI10359
aI107237733
aI10676
aI10790
aI10850
aI107545719
aI107663290
aI106246445
aI108074697
aI10168
aI106993942
aI105824478
aI11656
aI107696530
aI106405973
aI106191615
aI106242342
aI105987313
aI106928959
aI106519623
aI11830
aI12227
aI105871367
aI13318
aI105935712
aI106457402
aI11591
aI105829653
aI107572371
aI108351531
aI106355906
aI106335983
aI106823389
aI107065373
aI107884234
aI105891309
aI108242742
aI106631078
aI107991333
aI107635859
aI105787249
aI107467696
aI10769
aI107969579
aI10170
aI105843822
aI106347294
aI108200547
a.