(lp0
I105990845
aI107860315
aI11327
aI15093
aI11802
aI11287
aI106058154
aI105829161
aI105816899
aI105846944
aI105935039
aI106268558
aI106095026
aI106728177
aI105787348
aI105823132
aI106740382
aI107230627
aI106487856
aI106093802
aI107326021
aI105789759
aI106740073
aI105973336
aI106243568
aI105817062
aI105837552
aI106435914
aI106601971
aI105790555
aI105964182
aI106604572
aI107342057
aI106738886
aI105800279
aI106020445
aI106292269
aI105807147
aI13937
aI12522
aI106441684
aI12121
aI106013776
aI10565
aI11047
aI105819862
aI10431
aI106887229
aI105936209
aI106389004
aI12988
aI106554608
aI10271
aI105886042
aI107137428
aI105795871
aI106468895
aI105927097
aI14213
aI106731930
aI12448
aI105859992
aI105828656
aI14004
aI105844582
aI14201
aI107347938
aI10173
aI107867671
aI105953801
aI106158624
aI106215502
aI11916
aI105908373
aI106838734
aI12407
aI108076266
aI105934985
aI106832884
aI105822848
aI107147681
aI11466
aI107591659
aI10232
aI107902567
aI106257649
aI14977
aI107459332
aI15043
aI106251374
aI14568
aI106646308
aI106512094
aI107402621
aI105794043
aI106202961
aI12023
aI10481
aI106088454
aI10393
aI107806341
aI105889270
aI107153125
aI105871767
aI105913057
aI106714648
aI106247789
aI105863852
aI107387693
aI105987922
aI106159111
aI106365141
aI106134237
aI107588101
aI107563159
aI11048
aI105856868
aI105899017
aI107529159
aI105787222
aI107588308
aI106333851
aI14537
aI105846604
aI106351162
aI106452465
aI106046804
aI105851792
aI10102
aI10762
aI106121156
aI10788
aI105839151
aI14098
aI106160164
aI105946742
aI106945872
aI106201630
aI105788208
aI106861594
aI105954758
aI106778451
aI11622
aI10359
aI10676
aI10790
aI10850
aI12622
aI105890157
aI107545719
aI105835284
aI12237
aI107890277
aI106522843
aI10121
aI105929502
aI15023
aI108074697
aI10168
aI12194
aI105942841
aI13227
aI11029
aI11656
aI106242342
aI106022986
aI106389541
aI108386412
aI106670517
aI106119518
aI106519623
aI106858723
aI12227
aI106172718
aI108123128
aI11591
aI105829653
aI11331
aI107572371
aI107702638
aI107065373
aI107884234
aI106631078
aI107991333
aI105815147
aI107468926
aI108886435
aI107467696
aI10769
aI106253603
aI106299993
aI105867264
aI106059834
aI107079403
aI10681
aI106810689
aI105972105
aI108237198
aI107768941
aI105887867
aI106874543
aI105812440
aI14248
aI105934900
aI13658
aI106087077
aI105826399
aI106413021
aI14595
aI107656938
aI106136679
aI107515236
aI106156272
aI14015
aI107638654
aI106126874
aI105792986
aI105895326
aI10129
aI106494476
aI105902903
aI106055829
aI106697740
aI105964496
aI106192059
aI105886022
aI107431114
aI106907209
aI106526731
aI105805486
aI106596992
aI105790534
aI105994004
aI10380
aI107254662
aI106449553
aI105990793
aI106142131
aI107813980
aI108023481
aI106006184
aI107016185
aI106823112
aI10185
aI105841324
aI107297633
aI107075119
aI10445
aI105998198
aI105857129
aI105860008
aI106022334
aI106805249
aI106433124
aI106443331
aI10150
aI105885105
aI106308715
aI106110467
aI105797501
a.