(lp0
I105748888
aI105752314
aI105717595
aI105833241
aI105872329
aI107663200
aI106569405
aI106960635
aI105939289
aI107092600
aI108280686
aI106389976
aI106674872
aI106089673
aI106261545
aI105815492
aI105968949
aI107263630
aI105894776
aI105717343
aI105984618
aI107233603
aI105723973
aI106562848
aI105755677
aI107775351
aI107122807
aI105758590
aI105751474
aI107116449
aI106594374
aI106377858
aI105963176
aI108431428
aI106552165
aI106001294
aI107596457
aI107311854
aI105946984
aI106844762
aI106809041
aI105751852
aI106962389
aI105758290
aI106818379
aI105722650
aI105714854
aI106245133
aI107771954
aI108117741
aI106078582
aI106118926
aI106170117
aI105935083
aI107207846
aI105724108
aI105847561
aI105812232
aI105844932
aI106577204
aI106125706
aI105757540
aI106059110
aI106006701
aI105756940
aI105895512
aI106057066
aI106987004
aI105857631
aI106111636
aI106607754
aI105721780
aI106120241
aI105853680
aI105751339
aI106395360
aI106484343
aI107689484
aI106475885
aI106597873
aI105860773
aI106695510
aI105754312
aI106445385
aI107652174
aI106154626
aI105750670
aI105844552
aI105986641
aI105717664
aI106736615
aI105718717
aI106469998
aI106014130
aI106545427
aI105718645
aI106002073
aI106369852
aI105813521
aI105759105
aI108672691
aI105757450
aI106135595
aI107272232
aI105973037
aI105952346
aI105758224
aI106205159
aI106538772
aI106969294
aI105752284
aI105906913
aI105796868
aI107260606
aI105901068
aI105808935
aI106793287
aI105896507
aI107762870
aI106018707
aI105740027
aI106487416
aI105825652
aI106545414
aI105956667
aI105734888
aI107892923
aI107110717
aI106007327
aI106029336
aI106658553
aI105758188
aI105960035
aI106170545
aI107566161
aI105759015
aI107227920
aI106266547
aI106813728
aI105862540
aI105866439
aI105896738
aI105878287
aI106492936
aI105970971
aI109929122
aI106748164
aI105715598
aI105721954
aI105724579
aI105885201
aI105945822
aI105732356
aI106268007
aI105725776
aI107599378
aI106157768
aI105920176
aI105850311
aI105839872
aI105715475
aI106876099
aI106410744
aI106173018
aI106284169
aI105798861
aI105761550
aI105761895
aI107715253
aI106479180
aI106031901
aI106359376
aI105835613
aI108244285
aI108260789
aI105752158
aI107171970
aI105759921
aI106494369
aI107170498
aI105799068
aI106323497
aI105748460
aI105752233
aI105919554
aI106417447
aI106565353
aI105883612
aI106008031
aI106704687
aI106568489
aI106033069
aI107250844
aI106393593
aI105718354
aI105839865
aI105755209
aI106884396
aI105715133
aI108667053
aI107612034
aI105944970
aI107000945
aI105741413
aI105823775
aI107207854
aI106968288
aI105864770
aI106536276
aI106158139
aI106741704
aI106015721
aI105972238
aI105820868
aI106264287
aI106453923
aI105812633
aI105839382
aI105936236
aI108891366
aI105741236
aI106970938
aI105862484
aI107027055
aI105876730
aI105844756
aI107957035
aI106006000
aI105903304
aI105755746
aI105939195
aI106451181
aI105754432
aI107272752
aI105759912
aI106579826
aI106072773
aI107251699
aI105742163
aI106663343
aI106808825
aI105816687
aI106702790
aI105918254
aI105741296
aI105753595
aI106757989
aI106713273
aI105715277
aI105714740
aI105834727
aI105715562
aI105722512
aI105997764
aI105758985
aI107667060
aI105953632
aI105722500
aI106692383
aI105810522
aI105753046
aI106098897
aI106499931
aI105901678
aI107231744
aI106924855
aI105740471
aI105848762
aI105714713
aI105717781
aI106446581
aI107958581
aI105732242
aI106242309
aI105748343
aI105802985
aI106595578
aI105840803
aI106229402
aI105828443
aI108692491
aI106500899
aI106862975
aI105732821
aI107384640
aI106129030
aI105856757
aI105935655
aI105721819
aI105749737
aI105793700
aI105736423
aI105873508
aI105760572
aI106022831
aI105724567
aI107708237
aI105752458
aI106287380
aI106603598
aI107227212
aI107691712
aI106235537
aI106689843
aI107258033
aI107290463
aI106934965
aI105732557
aI106590333
aI106340352
aI105882470
aI107517307
aI105954044
aI105828905
aI106286289
aI106406072
aI105715052
aI107203605
aI106209595
aI105753127
aI107070275
aI107095325
aI105733040
aI108935768
aI105761142
aI107314771
aI105920684
aI105939456
aI105853353
aI105732686
aI107224735
aI106013355
aI105734858
aI106074170
aI107686992
aI105717319
aI105718018
aI106538513
aI107652125
aI105864025
aI106425572
aI106324532
aI106018730
aI105818192
aI106079645
aI105741266
aI105990868
aI105724096
aI105844749
aI108172666
aI106551414
aI108174120
aI105723568
aI105740624
aI106027847
aI106304100
aI105759951
aI105723364
aI106008012
aI106092352
aI108161862
aI105888753
aI108329849
aI106552911
aI105811934
aI105808884
aI106321707
aI106512409
aI105715214
aI107549615
aI105753391
aI105751432
aI105750214
aI105790427
aI107266509
aI105869901
aI105829283
aI105965780
aI107685747
aI106609778
aI107755282
aI105723067
aI110497832
aI105803031
aI106490286
aI107612167
aI106070395
aI105717883
aI105759942
aI106523693
aI106515510
aI105739889
aI105715358
aI106844744
aI105932968
aI108963551
aI106240381
aI107349938
aI105874724
aI105741410
aI105749920
aI107960054
aI106370678
aI106244827
aI105879418
aI106598659
aI105835312
aI105751645
aI106683755
aI106540643
aI107260255
aI106627424
aI107244144
aI105949830
aI107286692
aI106064500
aI105733037
aI105855725
aI106301878
aI105811601
aI106594009
aI106388629
aI105753841
aI106177981
aI107289398
aI105753535
aI105758820
aI106274957
aI105788842
aI105831688
aI105828548
aI105953969
aI106373354
aI106624776
aI109039598
aI106718682
aI106386272
aI105803921
aI105854040
aI105833930
aI106324468
aI105992030
aI107134897
aI106883120
aI106177957
aI105763017
aI105939414
aI105825940
aI106371747
aI107652160
aI105715121
aI107700123
aI107162935
aI105864917
aI106589450
aI106995936
aI106607248
aI106229037
aI108430153
aI107258492
aI106183120
aI105815502
aI106694036
aI105752398
aI106392598
aI109545754
aI105732950
aI106542879
aI105723100
aI105992126
aI108259507
aI105989461
aI105748810
aI107204428
aI105819549
aI105717913
aI105837865
aI105752362
aI107302791
aI105740720
aI105754198
aI105958196
aI107128258
aI105836052
aI105718423
aI106289598
aI105756007
aI107901794
aI105993425
aI106259639
aI105763740
aI105826602
aI107780271
aI106060673
aI105750520
aI107377841
aI105808917
aI106035142
aI105760671
aI109103118
aI107239363
aI105740030
aI105877837
aI106532631
aI106564976
aI106032498
aI106906284
aI106499737
aI105715640
aI108388413
aI106704594
aI108326280
aI105917818
aI105722569
aI105732860
aI105714803
aI105732632
aI105841247
aI107792019
aI105756304
aI106032578
aI107830952
aI105760971
aI106606417
aI105922178
aI105808202
aI106264203
aI106186148
aI105790327
aI105857574
aI105763650
aI105821477
aI105883363
aI106359215
aI107826594
aI106500831
aI105936677
aI105865776
aI106849627
aI106014010
aI105756595
aI106444820
aI106539295
aI106061901
aI105755278
aI106409812
aI105870659
aI106439428
aI106072248
aI107850018
aI106649898
aI105740516
aI105718762
aI105917400
aI105839886
aI106460901
aI106257715
aI105826195
aI105718324
aI106061743
aI106276179
aI105844877
aI105791728
aI105764739
aI107369506
aI106085301
aI105760530
aI107299377
aI105787657
aI105848844
aI106968604
aI107579617
aI108218808
aI105799303
aI105796602
aI105752263
aI105827707
aI106294434
aI107970144
aI106852061
aI106490343
aI107610795
aI107676689
aI105755296
aI106702431
aI105753475
aI106059221
aI106291093
aI106175591
aI107929724
aI105717538
aI106600199
aI107121352
aI105741734
aI107756673
aI106966819
aI106160457
aI107378038
aI105870193
aI105739925
aI106075972
aI105975325
aI107679972
aI106107243
aI106185054
aI106006906
aI105946066
aI108235982
aI105876683
aI105880920
aI107353375
aI105740513
aI105740483
aI105724192
aI106133896
aI106004538
aI106073286
aI109868733
aI105755821
aI105752902
aI105885132
aI106932500
aI105843833
aI106460430
aI106197491
aI105981084
aI106609417
aI106017999
aI106020501
aI105764451
aI105760713
aI105761013
aI105856626
aI106990678
aI105806007
aI105962510
aI107550241
aI106227647
aI106995815
aI107709957
aI105816305
aI105834162
aI108752567
aI105751261
aI105734861
aI105754846
aI105721813
aI106170587
aI105820338
aI105884809
aI106919088
aI106345231
aI106192685
aI108322069
aI105892303
aI106260758
aI105718171
aI107219982
aI105923573
aI106428381
aI105721723
aI107526980
aI106087863
aI105722023
aI105995354
aI105732452
aI107140287
aI106001262
aI105753814
aI107630612
aI105732602
aI106021864
aI106242059
aI105740216
aI108042909
aI105803553
aI105902062
aI105872202
aI107015300
aI106260021
aI105714995
aI105860661
aI105741485
aI105824183
aI105943709
aI107385089
aI106290540
aI108033931
aI107298903
aI105964154
aI107302921
aI105764433
aI106013257
aI105722029
aI105735728
aI106441334
aI105989074
aI105723955
aI108198881
aI106523736
aI106058973
aI107708066
aI106716988
aI105870198
aI105725341
aI105757228
aI105762636
aI107666971
aI106085403
aI105760362
aI105715361
aI105793695
aI105740165
aI105981203
aI105735374
aI106734164
aI109337483
aI105899275
aI105878830
aI106314260
aI106062153
aI106937181
aI106404831
aI105733172
aI105841512
aI107479190
aI107182012
aI105741311
aI107055014
aI106036846
aI105714839
aI105847042
aI106700923
aI106125082
aI106054911
aI106694020
aI105795006
aI107582956
aI105885193
aI106523397
aI106287958
aI105956387
aI108240135
aI105718120
aI105715262
aI106954396
aI105718303
aI105717958
aI107683101
aI105734663
aI106028545
aI105945799
aI108024079
aI106207730
aI106158362
aI105742127
aI106069249
aI106612628
aI105722509
aI106811957
aI107261930
aI105764193
aI107179863
aI105723433
aI105944582
aI105756589
aI105764151
aI106241101
aI105975521
aI105715403
aI106216373
aI106569417
aI105750094
aI106207663
aI107230729
aI106287722
aI105807598
aI106585764
aI106373223
aI107367669
aI106495333
aI106234501
aI105790268
aI105996559
aI105754747
aI105831811
aI105803519
aI105814099
aI105748310
aI106885267
aI108290565
aI105718054
aI106618747
aI105758575
aI105757225
aI108045117
aI105921241
aI105724783
aI105753832
aI105754789
aI105762036
aI106017994
aI105725605
aI106270236
aI105715286
aI107295924
aI105865718
aI105722671
aI106539008
aI109440145
aI105725434
aI105715427
aI105865214
aI107127531
aI106685578
aI107773572
aI106308405
aI105751000
aI105800940
aI105724594
aI105734666
aI106789659
aI107572773
aI105973249
aI107546385
aI105756457
aI106798174
aI106760950
aI105732302
aI106784349
aI106547430
aI105844485
aI105755839
aI106159335
aI106453950
aI106231339
aI105979728
aI106681320
aI105872209
aI105732965
aI107308040
aI105740498
aI105854215
aI105991298
aI105972125
aI105732518
aI105736055
aI105763353
aI105721711
aI106515472
aI106032117
aI105838643
aI106468155
aI105722566
aI108113627
aI107550564
aI109610249
aI106009517
aI108182312
aI105760950
aI106757184
aI106288015
aI105760908
aI108674081
aI105985842
aI105849261
aI106589180
aI107591730
aI106849064
aI105714932
aI105741005
aI107771878
aI106810706
aI107074597
aI106297660
aI108670528
aI105734648
aI105717808
aI106242426
aI105758434
aI105754207
aI107119823
aI105918073
aI105818849
aI105913023
aI106984423
aI108356118
aI105753562
aI106224325
aI105715223
aI108771010
aI105918383
aI105870890
aI105724540
aI105757048
aI105819777
aI106230924
aI106755212
aI105788835
aI105943402
aI105714914
aI108246065
aI106757333
aI105755254
aI106399171
aI105722434
aI106320851
aI106204607
aI105751510
aI107878048
aI105741833
aI105981926
aI105962294
aI107262849
aI105749632
aI105869050
aI106886892
aI105751168
aI105724666
aI106140506
aI105998986
aI106455077
aI105866000
aI106276559
aI106657433
aI106000252
aI106621379
aI106884133
aI106180614
aI105819729
aI107667002
aI109928434
aI105764178
aI105751006
aI105881704
aI105721765
aI106415185
aI108170249
aI105762393
aI107305829
aI108266980
aI105803717
aI108063699
aI106257779
aI105740312
aI106586439
aI105752890
aI105865862
aI108134093
aI105722848
aI106463231
aI106674820
aI105864016
aI107508876
aI105759588
aI107113155
aI105925313
aI106959629
aI106124166
aI107196748
aI105968891
aI105923973
aI107190221
aI106176804
aI106592321
aI106053521
aI105949939
aI105723649
aI105917977
aI105857287
aI109801365
aI107872008
aI105893624
aI106341750
aI105758260
aI105758209
aI106690556
aI105867036
aI105799291
aI105958924
aI105740441
aI106055688
aI108202114
aI105899454
aI108281533
aI105910339
aI107185832
aI107316713
aI106972207
aI108650231
aI105717739
aI105753085
aI106646292
aI107690680
aI107706079
aI106415417
aI106015608
aI106183768
aI106061772
aI105813398
aI107690702
aI106157126
aI105751798
aI106446032
aI106755664
aI105741359
aI105717712
aI107857955
aI106097030
aI105790265
aI106009676
aI105718012
aI106314228
aI107152155
aI106681341
aI105722050
aI107161309
aI107170417
aI106534150
aI106003166
aI105752185
aI105850200
aI105741575
aI106843436
aI108617444
aI105752623
aI106028120
aI107828917
aI106383795
aI105810631
aI107201479
aI107612131
aI108364923
aI105717391
aI106582962
aI108139139
aI106771722
aI107690721
aI105723691
aI105829719
aI107186092
aI107783765
aI105757891
aI107055936
aI106556460
aI105879977
aI105961410
aI106067919
aI107598703
aI108244142
aI105811583
aI105753247
aI105758092
aI105715577
aI105732938
aI106194435
aI106612308
aI105997635
aI105764910
aI106486851
aI106768347
aI105751531
aI105946447
aI105740135
aI105946596
aI106182849
aI105850431
aI106014555
aI107059757
aI106333606
aI106583856
aI105753430
aI106181811
aI105760797
aI107958589
aI105801753
aI106090216
aI106895798
aI106441360
aI106463899
aI106615717
aI108195670
aI106921980
aI105756985
aI105740990
aI105758062
aI105844741
aI105752968
aI107580525
aI106270721
aI106105696
aI105723793
aI108295807
aI105715544
aI106085319
aI105741920
aI105740906
aI108004982
aI106554139
aI105945264
aI108623329
aI105964117
aI105862249
aI106579384
aI106177319
aI105741533
aI105899231
aI107361290
aI105722299
aI105760548
aI107203592
aI107704721
aI105800391
aI107446381
aI105740930
aI105740036
aI106032888
aI105722449
aI106775128
aI106045269
aI106422486
aI105754978
aI105924807
aI106520646
aI106602017
aI105742073
aI107632998
aI108148284
aI105722713
aI105900947
aI106218189
aI109261687
aI105741668
aI107768402
aI107892079
aI108305145
aI105748334
aI105895467
aI105754039
aI105898540
aI105878140
aI106773969
aI105805741
aI105758566
aI106146069
aI105732884
aI105763827
aI105753079
aI106457061
aI106134470
aI107727542
aI106198625
aI106225772
aI106685529
aI106424661
aI105752809
aI105760368
aI105837304
aI106090317
aI105803718
aI105829725
aI105722182
aI105878133
aI106036854
aI105753370
aI105753067
aI107183590
aI106060680
aI105761589
aI107653142
aI107263085
aI107162656
aI106304615
aI105715085
aI106149038
aI105886249
aI107313823
aI106417287
aI106533431
aI106020420
aI105757609
aI105927776
aI106302512
aI105797044
aI105732548
aI106519166
aI105873860
aI106077081
aI105718567
aI106066531
aI105751891
aI107793930
aI105790979
aI106190002
aI106293409
aI105739883
aI105790430
aI105945908
aI105758536
aI105856679
aI106789524
aI105715139
aI107662079
aI106477923
aI105754258
aI106867964
aI106389128
aI106242043
aI107651987
aI106419142
aI106065449
aI107182839
aI105917773
aI105715016
aI105751738
aI106346793
aI105992951
aI105718333
aI107688903
aI105757945
aI106113998
aI106200046
aI105752077
aI105758919
aI106088787
aI107828909
aI105748993
aI106864599
aI106191401
aI105818839
aI105718318
aI105725140
aI105944704
aI105753319
aI106403086
aI106103011
aI107151134
aI106920506
aI109140029
aI106792577
aI107077816
aI106710765
aI106132305
aI108111074
aI105878619
aI106296895
aI105714776
aI106786978
aI107304901
aI105748079
aI105763674
aI106228490
aI105858215
aI109421340
aI106229085
aI106668093
aI105749698
aI105756532
aI106229924
aI106870492
aI105973243
aI106257648
aI107763194
aI105883594
aI108077936
aI105857281
aI106295806
aI105991954
aI105753925
aI107328730
aI105741863
aI105812221
aI105732734
aI105839425
aI106668148
aI107044775
aI106648085
aI106263806
aI105754660
aI107301425
aI106489240
aI106417326
aI106065321
aI106036914
aI105733124
aI106186183
aI105871498
aI105751162
aI105723556
aI105723064
aI106961976
aI105844763
aI105752179
aI106049530
aI107118101
aI106622736
aI107041112
aI106694077
aI105999022
aI105911210
aI107144667
aI105909672
aI105753094
aI108246095
aI106389546
aI106282848
aI105725899
aI105751642
aI105760851
aI106089724
aI106651512
aI106507418
aI105749173
aI105756037
aI106157377
aI105789513
aI106298308
aI106197345
aI107216078
aI105805752
aI105717451
aI106804227
aI105886110
aI105859443
aI108117390
aI105760599
aI108674028
aI105944878
aI105717799
aI105799298
aI107463246
aI106683237
aI105804115
aI106164148
aI106543624
aI106216208
aI105870336
aI106604785
aI106695901
aI105872943
aI105740972
aI105732908
aI107234503
aI108563816
aI105795217
aI105987462
aI106062077
aI107180626
aI108429694
aI106286823
aI105717436
aI105833798
aI105863412
aI105732596
aI106007016
aI105757987
aI105715022
aI107442268
aI106001315
aI105733109
aI106023629
aI106120263
aI106060618
aI106057691
aI106303786
aI105753610
aI106960666
aI108082619
aI105793686
aI106254320
aI107696106
aI105740966
aI105848825
aI105872466
aI106445758
aI105798504
aI105764181
aI107543333
aI105923839
aI105752302
aI105756523
aI105741584
aI106003130
aI106841461
aI106910646
aI107151172
aI107741865
aI108117540
aI105910421
aI108050202
aI106499012
aI105717418
aI105888125
aI106184824
aI108418123
aI108168278
aI106768416
aI107224747
aI106467615
aI106959179
aI105828310
aI105761292
aI105764889
aI106159725
aI106257710
aI106414575
aI105790115
aI106836137
aI106195716
aI105756241
aI105888355
aI106089997
aI106271718
aI105735344
aI105715199
aI106421904
aI105874465
aI110130835
aI105722485
aI106026182
aI105755023
aI106470389
aI105740141
aI105803228
aI105934199
aI106255438
aI105797867
aI105755281
aI105965811
aI105741545
aI105756409
aI105908766
aI106383782
aI106007875
aI106232029
aI106789087
aI107192057
aI106036056
aI105714923
aI106958885
aI106295546
aI105761205
aI105946598
aI106443760
aI105863567
aI106120433
aI105740237
aI105758425
aI106818415
aI105952306
aI106340067
aI105761289
aI106013921
aI107832168
aI105982372
aI105742190
aI105740291
aI105844434
aI106129001
aI105858682
aI105764499
aI106340055
aI107233912
aI106421508
aI105856733
aI106787175
aI105874680
aI107154201
aI105792640
aI106622899
aI106900225
aI106517307
aI106138061
aI105979865
aI105925179
aI105847453
aI106500102
aI105724606
aI108203856
aI107847977
aI106151932
aI107131450
aI106561981
aI106231707
aI107276623
aI105874557
aI105761349
aI105722488
aI106064127
aI106797029
aI105748990
aI106003120
aI105856207
aI107015696
aI106809050
aI106316623
aI105750763
aI105722407
aI109451879
aI105831783
aI105756994
aI106286405
aI105740330
aI106542971
aI106001985
aI106002105
aI106094072
aI106054653
aI106242017
aI105803870
aI105888973
aI106969872
aI105741992
aI105724093
aI106182282
aI105722014
aI105718000
aI105740477
aI106976790
aI107128940
aI107117827
aI105764310
aI108433972
aI107296745
aI106281540
aI105870771
aI105944488
aI105943086
aI106254851
aI105740300
aI106388608
aI107208914
aI106075222
aI106476086
aI106600214
aI106265910
aI106810025
aI105874694
aI106490054
aI105717562
aI105834143
aI106718247
aI107199371
aI106059659
aI106128632
aI107532653
aI105740939
aI105827628
aI106171718
aI106529692
aI107974272
aI106425762
aI105850332
aI105721789
aI106708164
aI105723739
aI106578352
aI106439573
aI106146660
aI106001197
aI105791954
aI107208173
aI106348791
aI106617590
aI105955933
aI105877392
aI106444941
aI105734762
aI106168784
aI106597507
aI106131105
aI105944620
aI106532504
aI106070759
aI106166049
aI105806552
aI106410481
aI105749290
aI106277271
aI106129989
aI105949212
aI107200706
aI106416135
aI106258896
aI110256953
aI106791949
aI105733034
aI105842289
aI105740459
aI107242318
aI106432960
aI105840581
aI105753010
aI106511942
aI107660262
aI107768828
aI106933629
aI107580122
aI107796272
aI105905286
aI105754729
aI107954921
aI107755253
aI108332984
aI106309924
aI105734693
aI107164879
aI105732308
aI105969765
aI105753211
aI105923023
aI107203617
aI105764583
aI105714917
aI106388637
aI107867565
aI105762981
aI105964114
aI105998946
aI105959750
aI106616004
aI105724828
aI107299736
aI107182406
aI105754015
aI106824345
aI106010518
aI105889985
aI105827734
aI106003101
aI105968232
aI105760347
aI105723937
aI106235554
aI105733013
aI106230947
aI105906732
aI106264408
aI107128242
aI105851430
aI105856616
aI106690823
aI108679633
aI106767196
aI106293859
aI105753808
aI106157912
aI105759960
aI107235954
aI105735479
aI106371729
aI107488333
aI105970009
aI105841756
aI105930247
aI107313025
aI105718315
aI105756472
aI106476191
aI108829191
aI105846876
aI107015736
aI105886505
aI105880865
aI107151159
aI105816350
aI105717403
aI105759309
aI105920175
aI105834097
aI106565013
aI106787006
aI107207862
aI107550548
aI105966733
aI105723322
aI105749656
aI109811789
aI108175274
aI105999228
aI106543794
aI105717805
aI105724678
aI105833948
aI106177294
aI105759861
aI106833271
aI106551858
aI107208137
aI105749938
aI107116786
aI106473854
aI107762220
aI105956228
aI107670101
aI105732785
aI105895220
aI106388677
aI105975216
aI105988159
aI105749944
aI107254934
aI106104431
aI107331219
aI105876102
aI105956610
aI107136665
aI106543011
aI107962082
aI107771601
aI105732818
aI106643979
aI105820721
aI105927469
aI108330337
aI107755922
aI105849180
aI105848942
aI106155969
aI105944445
aI105754114
aI105725770
aI106026200
aI106297634
aI105735101
aI105885373
aI105809789
aI106999966
aI105759153
aI105951010
aI106196513
aI107321732
aI105722995
aI107690694
aI106155979
aI105985196
aI105990395
aI105985069
aI106963299
aI105758560
aI105748319
aI105999076
aI107276656
aI106250864
aI105721705
aI106075149
aI105764256
aI106727787
aI108143351
aI105721741
aI107652101
aI107727923
aI106129861
aI107048914
aI106158062
aI107550199
aI105949844
aI105752740
aI108326441
aI105946140
aI105748897
aI105922852
aI106088728
aI105998241
aI105829956
aI105962588
aI108262093
aI106580266
aI105752911
aI105752794
aI107763825
aI106597343
aI108134181
aI106915658
aI106544607
aI107652681
aI106072648
aI109223956
aI105756157
aI105957078
aI106436283
aI105999544
aI106277254
aI108267245
aI106001205
aI105873628
aI108868546
aI105900396
aI105723997
aI106155983
aI105862055
aI106095101
aI105714863
aI108337993
aI107099358
aI106582645
aI109412863
aI105799187
aI107044698
aI108741443
aI105761211
aI106840059
aI106550688
aI105862088
aI105758344
aI105717466
aI105718399
aI105742130
aI106425751
aI105764973
aI107065907
aI107655562
aI106998080
aI105858448
aI105718117
aI105761505
aI106615729
aI105818160
aI106072692
aI107387111
aI106002958
aI105714743
aI105734639
aI105748484
aI107669530
aI105837860
aI108005676
aI105733046
aI105741164
aI105888710
aI105752242
aI105753262
aI105957846
aI106713951
aI107663418
aI106517013
aI106338053
aI106520925
aI105907855
aI106169095
aI107655569
aI105732410
aI107025318
aI107179233
aI105749425
aI107327653
aI107195878
aI105970053
aI107270220
aI107325288
aI105732974
aI105717379
aI106089036
aI105860768
aI107112095
aI106788256
aI107513113
aI107783741
aI105816699
aI107246839
aI106956480
aI105877577
aI107623918
aI105732278
aI108233165
aI105990776
aI105750946
aI105722242
aI105763668
aI105828543
aI107068739
aI106553547
aI106119507
aI108270979
aI105723445
aI106532678
aI107566528
aI105721786
aI105763692
aI107066004
aI105741749
aI106391901
aI106003140
aI105752878
aI105732737
aI105799072
aI105845816
aI107331394
aI105827059
aI106532687
aI107072897
aI106008413
aI107658626
aI105757096
aI106259577
aI106056786
aI106302406
aI105722746
aI105879734
aI105976815
aI105751894
aI106776367
aI105819995
aI107259162
aI105717727
aI105758973
aI105991865
aI105751084
aI105907923
aI105794569
aI106870148
aI105732764
aI106383820
aI106934998
aI105752887
aI106897643
aI107859289
aI106436232
aI106807133
aI106009699
aI106429971
aI107151140
aI105811893
aI106721145
aI105939236
aI105734594
aI107263484
aI106413869
aI108226321
aI105715502
aI106187777
aI110008504
aI106054459
aI106144480
aI107156548
aI106021977
aI107263106
aI105818783
aI105750373
aI106358718
aI106057998
aI105840260
aI105833998
aI106104902
aI106379292
aI106745061
aI108391917
aI105984614
aI106015652
aI105995793
aI105749191
aI105754831
aI106176130
aI107550053
aI105863225
aI105723076
aI105979790
aI105741878
aI105758020
aI106684684
aI106604822
aI106786966
aI106053351
aI105741041
aI105764631
aI107203346
aI107059835
aI106197734
aI106156868
aI108934313
aI107323064
aI106234941
aI105714752
aI105722323
aI106183270
aI107270397
aI105724930
aI106727830
aI106997777
aI106283611
aI105839311
aI105754957
aI105809481
aI106138388
aI106804749
aI105939747
aI105753919
aI106812458
aI105753742
aI105749245
aI109502872
aI105750823
aI108907414
aI105801998
aI106649908
aI105723454
aI105741629
aI105714866
aI105793733
aI106020487
aI105732683
aI108143488
aI107684661
aI107226291
aI106112846
aI106143697
aI105915124
aI106104224
aI105718111
aI105842722
aI105898011
aI105849805
aI106134054
aI105717724
aI106194690
aI108325222
aI105975313
aI106474204
aI106520423
aI105880979
aI105753496
aI106817338
aI105979738
aI105933306
aI107781750
aI106046738
aI106020520
aI106538034
aI105739898
aI105752755
aI105790008
aI105717856
aI106034530
aI105816331
aI107641422
aI105724393
aI106003710
aI105815743
aI106303226
aI105757396
aI106595179
aI106642389
aI106050295
aI106732303
aI107527051
aI106429154
aI106216970
aI106573480
aI106601268
aI106227805
aI107665488
aI106213884
aI106277173
aI106337538
aI108103187
aI107111463
aI106745642
aI105793805
aI105752386
aI107115995
aI108218796
aI106269732
aI106944299
aI106475802
aI107474601
aI106424466
aI106876374
aI105898685
aI107410134
aI105868000
aI107844143
aI105933053
aI106117109
aI105795241
aI107255874
aI105891912
aI105913032
aI105740630
aI105751414
aI105733004
aI105741785
aI105760260
aI105722842
aI105718678
aI106364173
aI107214157
aI106239756
aI105932269
aI106949856
aI105917684
aI108273811
aI105718240
aI105955587
aI107310399
aI106726961
aI105891716
aI105761121
aI105954933
aI105844728
aI105760575
aI105819964
aI106645119
aI105927100
aI105829767
aI106798600
aI106565030
aI106364153
aI105752212
aI105929947
aI106702567
aI105920214
aI105735476
aI105751315
aI108674009
aI105732671
aI105923586
aI107805100
aI105853642
aI107529251
aI106491571
aI106543279
aI107667064
aI105761919
aI106517451
aI105732386
aI106565020
aI107666989
aI105762054
aI105997603
aI109071600
aI105722461
aI105948479
aI106548476
aI106159755
aI108326391
aI105758667
aI109601770
aI106577807
aI105798885
aI106586316
aI105717622
aI106033494
aI108326427
aI106001229
aI106054645
aI107728011
aI105862904
aI106927963
aI107888895
aI106523720
aI107200613
aI107596035
aI105723934
aI105718135
aI105862525
aI105902334
aI106049459
aI108326336
aI108058338
aI107661041
aI107113327
aI105816313
aI105758757
aI105798117
aI105748102
aI107695410
aI105811114
aI105811547
aI105823726
aI105721876
aI105827418
aI106207830
aI106603893
aI106793348
aI105803446
aI106794559
aI107250777
aI105740276
aI105821061
aI106260070
aI108134341
aI105876121
aI105795478
aI106716979
aI108781019
aI106413732
aI106200481
aI106414588
aI105732947
aI105902070
aI106226364
aI106764312
aI106847363
aI106038235
aI105748029
aI105753088
aI106745506
aI105717736
aI105848862
aI105734798
aI106175968
aI105830801
aI105733166
aI105790674
aI106049082
aI106523706
aI105956245
aI106277210
aI105962620
aI105751429
aI106599032
aI106230695
aI107116433
aI107879859
aI105753823
aI106968591
aI107676048
aI107349807
aI107333321
aI106037752
aI105865078
aI107111449
aI105905259
aI106001526
aI105753838
aI105948650
aI107090350
aI106398004
aI105909574
aI105721708
aI105902749
aI105930936
aI106787270
aI106900170
aI107313158
aI106182853
aI105969664
aI105961439
aI105740453
aI105840450
aI108049362
aI105741758
aI105756739
aI106848024
aI105757534
aI106600776
aI107049462
aI106445036
aI107270116
aI105999923
aI105740093
aI106445478
aI106531483
aI106057971
aI105742175
aI105795744
aI108041838
aI105741980
aI105722539
aI105723994
aI106517646
aI107754650
aI106264809
aI106190814
aI105848984
aI106169442
aI105807442
aI106075218
aI105900343
aI105753820
aI105976809
aI106945815
aI105762768
aI107857002
aI105792767
aI105803876
aI105758482
aI105799989
aI105718735
aI106523876
aI108326379
aI106002156
aI107235973
aI107168426
aI105717649
aI105843454
aI106076029
aI105757510
aI105741998
aI108290531
aI105718177
aI106852529
aI108371294
aI105751330
aI108787826
aI105956413
aI106577327
aI106653818
aI105892354
aI105754303
aI106253882
aI107612175
aI106280369
aI105756838
aI105761223
aI105973397
aI105867934
aI105816053
aI107183254
aI107885107
aI107618574
aI107268699
aI106517813
aI107641505
aI107379134
aI107127961
aI106019787
aI105787743
aI105835530
aI106892444
aI106371713
aI105864279
aI105717937
aI105993599
aI105732935
aI105756346
aI107183141
aI106378815
aI105721987
aI105808844
aI105722332
aI106568794
aI105813489
aI106785181
aI105877824
aI106876106
aI106975155
aI106226461
aI105741527
aI105748699
aI105753289
aI108397976
aI105763773
aI105741437
aI106180711
aI107247232
aI107204398
aI106202915
aI106796348
aI105740324
aI105740654
aI107514316
aI106114509
aI106514405
aI105959820
aI107070367
aI106433965
aI108259519
aI105724180
aI107855115
aI106254301
aI108892255
aI105740231
aI105750961
aI106487089
aI105761265
aI108017188
aI105808879
aI106419684
aI107779091
aI105741155
aI105947931
aI105732752
aI106006357
aI107605814
aI107894358
aI105958860
aI105734795
aI105966655
aI108326384
aI107278241
aI105973444
aI106519187
aI107292698
aI106228477
aI106589465
aI105848567
aI106170122
aI105814371
aI105718390
aI105753976
aI106979248
aI106850952
aI105717943
aI105896587
aI105753721
aI106076265
aI105921065
aI108117383
aI105748514
aI106775164
aI105923640
aI105721849
aI105755923
aI105955835
aI107199072
aI105722401
aI106420649
aI106186161
aI105885143
aI105753343
aI107155749
aI105714893
aI107612159
aI107414631
aI105722452
aI105754780
aI106220880
aI106133868
aI105741116
aI105763782
aI105816742
aI107235945
aI107449255
aI105871934
aI106173514
aI106053345
aI106728959
aI105714794
aI106239793
aI105723325
aI106552708
aI106232307
aI106564686
aI105741560
aI108337000
aI105991775
aI105721666
aI107552857
aI106057983
aI105789081
aI105734840
aI105754030
aI105740417
aI106885903
aI105870694
aI106208236
aI106002096
aI106157926
aI107089283
aI105754249
aI106260723
aI109074357
aI107169041
aI107131365
aI105764184
aI105717631
aI106240365
aI105899738
aI108230711
aI105752134
aI105800395
aI106469435
aI105753673
aI106955044
aI106570961
aI105725410
aI105732836
aI106286280
aI105812674
aI105908648
aI106333612
aI108209091
aI106513460
aI106635318
aI109387382
aI105827835
aI106786989
aI106385101
aI107719622
aI105799421
aI105760608
aI107821895
aI106804801
aI106879060
aI106185029
aI106769439
aI106192768
aI106361829
aI106054657
aI105818791
aI105721726
aI105871982
aI105752770
aI107723828
aI106002651
aI106182727
aI105735398
aI105934692
aI105749596
aI105742007
aI106828306
aI105970015
aI105983525
aI106072397
aI106020017
aI105867142
aI105759396
aI105958263
aI105853976
aI106573972
aI105741479
aI107425223
aI106102681
aI106260100
aI107132554
aI106032536
aI106124805
aI107110306
aI107276588
aI107632322
aI105793920
aI106742491
aI105965876
aI105732917
aI107456076
aI106612611
aI106893248
aI106849238
aI105732272
aI105740657
aI105741704
aI106721171
aI106068437
aI105972116
aI106371748
aI105906896
aI106605533
aI105732980
aI105811543
aI106493183
aI106480686
aI106195315
aI105765177
aI105735341
aI105756580
aI106425481
aI105761892
aI106081869
aI106371779
aI105870883
aI105790444
aI105927987
aI105910228
aI105723679
aI107829681
aI105984852
aI106718777
aI106498560
aI107532681
aI105753214
aI106034654
aI107099027
aI107695419
aI106793318
aI108172589
aI105754681
aI106640630
aI108170241
aI108272024
aI105854664
aI106128957
aI108295386
aI106190024
aI106797087
aI105973386
aI107224787
aI107735680
aI106132213
aI105912416
aI106029351
aI106046438
aI106388671
aI105807027
aI106183150
aI105725620
aI105755974
aI106571860
aI105752749
aI108049324
aI107549603
aI107303312
aI106656391
aI105734741
aI105894674
aI106242012
aI105761733
aI106743176
aI105945938
aI105725158
aI105755818
aI107254480
aI106530394
aI107587101
aI105714968
aI105755551
aI105758754
aI105740234
aI105741017
aI105718690
aI105740594
aI105725347
aI106033085
aI105748035
aI106679389
aI106375205
aI106918228
aI107618284
aI105736336
aI105870653
aI106904385
aI105715283
aI106590847
aI105857119
aI105995292
aI105717901
aI105809722
aI106768298
aI106256726
aI105732767
aI105756964
aI105823943
aI106132232
aI105740636
aI105752395
aI106399696
aI105969721
aI105920151
aI107571773
aI105732809
aI107205256
aI105736058
aI105760854
aI106968665
aI105755506
aI107216203
aI107475319
aI106071543
aI105896819
aI105741869
aI106006991
aI106517059
aI105992900
aI110508566
aI106062161
aI105975428
aI106193133
aI105893732
aI105762492
aI106133493
aI106204884
aI106521687
aI106009336
aI105857205
aI105918082
aI106734594
aI105907696
aI106207839
aI106411047
aI107179880
aI105764385
aI106491857
aI105721894
aI106157707
aI106358104
aI105790283
aI106874087
aI105894693
aI106644063
aI108424205
aI105723625
aI106684835
aI106999949
aI108077182
aI105759738
aI105715580
aI106611654
aI106584878
aI105722491
aI109868754
aI105927464
aI106049550
aI105836970
aI105759465
aI106477865
aI105752926
aI106580622
aI107263597
aI106955599
aI105740948
aI105742172
aI105935674
aI106885721
aI107633078
aI105988576
aI105753082
aI105721621
aI105714956
aI105740432
aI106278633
aI106166709
aI106109412
aI105813900
aI107165169
aI105828999
aI106332507
aI105758512
aI107479199
aI108450321
aI105755620
aI106422580
aI108423642
aI106686090
aI105748108
aI106417273
aI105995389
aI106782101
aI105740204
aI107617015
aI105996519
aI105735722
aI105928778
aI105758098
aI106681325
aI105972103
aI109358735
aI105835954
aI105724009
aI107572379
aI105814539
aI107828896
aI106008373
aI105983489
aI105855392
aI105879324
aI105757198
aI106210609
aI105991855
aI105992537
aI105789153
aI105847435
aI106061915
aI105756085
aI105843781
aI105857538
aI105912192
aI105722305
aI105751024
aI105762867
aI106469597
aI106303984
aI106049524
aI107283413
aI106555416
aI105971762
aI105715259
aI108149865
aI105753160
aI106028074
aI107204420
aI105992529
aI105829055
aI105904832
aI105889531
aI106899240
aI106060623
aI106144681
aI110619294
aI106090386
aI106346934
aI106915673
aI106574064
aI106863069
aI105764211
aI105753544
aI106595569
aI106759008
aI106998050
aI106513151
aI106521660
aI105759009
aI105949507
aI106119677
aI105920239
aI106010400
aI106288088
aI105947062
aI106350635
aI106058515
aI106669076
aI106757646
aI105841216
aI106863268
aI106824109
aI105741566
aI105955926
aI105947052
aI105844331
aI106265267
aI107879704
aI106046446
aI105809181
aI105725407
aI105801058
aI106852723
aI106184602
aI105885150
aI106742861
aI105752224
aI105866205
aI105740960
aI105955198
aI105958754
aI105748430
aI106569498
aI107214748
aI105877899
aI107115968
aI105732533
aI109228284
aI105872907
aI105930620
aI105741941
aI106810808
aI107062135
aI106186138
aI107783773
aI105809767
aI106392772
aI105950475
aI106129728
aI106852287
aI105891681
aI106838589
aI105752617
aI105816729
aI108297355
aI105714953
aI107326347
aI105994333
aI105741647
aI105758419
aI105833627
aI105760263
aI105805720
aI105756796
aI105764850
aI105910322
aI106165069
aI106083726
aI105890878
aI105717940
aI106289989
aI107652120
aI105753040
aI106784670
aI105945855
aI105985733
aI105741473
aI107559669
aI107775088
aI105749536
aI106720501
aI105748301
aI105763728
aI106886350
aI105814198
aI105752788
aI109868744
aI105753811
aI105802369
aI105980641
aI106904304
aI108330159
aI108106209
aI105740222
aI106056189
aI106712590
aI106793304
aI106510631
aI106805158
aI105725692
aI105734714
aI105880973
aI106298756
aI106939422
aI106713091
aI105755518
aI105876476
aI105760023
aI105732458
aI106741968
aI107214805
aI108188041
aI106271512
aI105812408
aI105762708
aI106417674
aI105956354
aI107287722
aI105751648
aI105872095
aI105718063
aI105822631
aI106949860
aI105860937
aI105755185
aI105725521
aI108045111
aI105756460
aI106287982
aI105751207
aI105756877
aI107970110
aI105870703
aI107692893
aI106887427
aI106536519
aI105752827
aI106233315
aI105749692
aI105764409
aI107802812
aI106217697
aI105723019
aI108252843
aI105734651
aI106277186
aI105847535
aI105734603
aI106403148
aI106743156
aI106057739
aI107549933
aI105877768
aI106594666
aI105753394
aI105970006
aI106021988
aI106054444
aI109610627
aI105748265
aI108326451
aI106467453
aI106033480
aI107636757
aI105984188
aI108141213
aI108191645
aI105827663
aI106579880
aI105764058
aI105874501
aI107386026
aI106600975
aI105878833
aI105732605
aI105748304
aI105998178
aI105732485
aI105838046
aI105717400
aI106783054
aI105857328
aI108252401
aI106439551
aI107013861
aI105939171
aI105741947
aI108538330
aI106672951
aI106604800
aI105740186
aI106208732
aI105990042
aI106078463
aI106025644
aI106132682
aI106032103
aI106402159
aI105898536
aI105870727
aI108844974
aI105735188
aI107878242
aI105722227
aI107754501
aI106411480
aI105874615
aI105722533
aI107220802
aI106075920
aI105760944
aI107564731
aI105721840
aI106371758
aI106256230
aI105764397
aI105792847
aI107643205
aI105826439
aI107324327
aI105722197
aI105927036
aI105724948
aI105736205
aI106589615
aI107605805
aI106680176
aI106492328
aI109318244
aI105732287
aI106185180
aI106139499
aI105717763
aI105725821
aI107238683
aI105740864
aI106243615
aI106509898
aI106230251
aI105722089
aI106863276
aI106597835
aI105993590
aI105983451
aI105917493
aI107997740
aI107707302
aI106579528
aI105734750
aI106412192
aI105756631
aI105914177
aI106060595
aI105722812
aI106767708
aI106696981
aI106879513
aI105990554
aI105850865
aI105722707
aI105724426
aI105755791
aI105820110
aI106047110
aI106852720
aI105740783
aI106542788
aI105847156
aI107408085
aI105834098
aI106286051
aI105877434
aI106411707
aI106868569
aI107357222
aI106039317
aI105944910
aI105896734
aI106804297
aI106404810
aI105871114
aI105876128
aI105732866
aI107424653
aI106177308
aI105714746
aI106392786
aI105732416
aI105753754
aI105762399
aI107235965
aI105757831
aI106883451
aI107748599
aI105942224
aI106409163
aI106997512
aI106571828
aI105920189
aI106443052
aI105965531
aI105865990
aI105725884
aI105733157
aI105758796
aI106757206
aI105764559
aI106157983
aI105752371
aI105859843
aI105836743
aI105753628
aI107074389
aI105758179
aI105862924
aI105750673
aI105904809
aI105748199
aI105732617
aI105739970
aI105751366
aI108259166
aI107267591
aI105741611
aI106728460
aI106257130
aI105845886
aI106369896
aI106011593
aI105741395
aI105754999
aI105741107
aI106987102
aI105966643
aI105760014
aI106030088
aI107749407
aI106324515
aI105764664
aI106571805
aI105759300
aI105718021
aI107447472
aI108273825
aI108047577
aI105760938
aI108472668
aI105866353
aI105761646
aI106882008
aI105835086
aI105732746
aI105942500
aI105920122
aI106587817
aI105948300
aI106349236
aI106432672
aI105721801
aI107092614
aI107110640
aI106231668
aI106005349
aI106293189
aI106089682
aI106539040
aI107588478
aI105877935
aI105758928
aI105799568
aI106908272
aI106288072
aI106290367
aI105762324
aI108033987
aI106523339
aI105718036
aI106756228
aI105755725
aI105854030
aI106411321
aI106707425
aI105845616
aI106655892
aI107743310
aI105740843
aI106002639
aI106920320
aI106447491
aI105717613
aI105894981
aI105760764
aI106417285
aI106151647
aI105741020
aI105759051
aI105980583
aI105750022
aI108126873
aI105889661
aI106001087
aI106313920
aI105938230
aI107006628
aI106425558
aI106110296
aI105976311
aI105724327
aI105952301
aI105949903
aI109412189
aI105901165
aI108256706
aI106601100
aI105722422
aI105789888
aI105938053
aI105734771
aI105910303
aI105760914
aI105760059
aI107070363
aI105891504
aI107235689
aI106766001
aI106199504
aI106491564
aI106213727
aI106290528
aI105762204
aI105807135
aI106296805
aI106133985
aI106570942
aI106190766
aI105874284
aI105881452
aI109679786
aI106103900
aI105960040
aI105933562
aI105718801
aI105757042
aI105717952
aI105802935
aI107387489
aI105955616
aI105761334
aI105753277
aI105967430
aI105715556
aI105837400
aI105740015
aI105938983
aI107884609
aI105760995
aI105748229
aI106004001
aI105962302
aI107097929
aI106863209
aI106522984
aI107707306
aI105761475
aI105754732
aI105757057
aI105765204
aI106162963
aI105723706
aI106083635
aI106209777
aI105925586
aI105723427
aI106835022
aI107304347
aI105923421
aI106110258
aI107407350
aI105740978
aI105812213
aI106139490
aI105996464
aI105800851
aI105740438
aI107727123
aI106690538
aI105793707
aI109209944
aI105853850
aI106765208
aI105764649
aI106976845
aI108224747
aI105740354
aI105763143
aI106081913
aI105751174
aI106158307
aI105792069
aI105756292
aI105754537
aI106799796
aI108202093
aI106763573
aI106195535
aI105754642
aI105732872
aI109279111
aI106067460
aI106023905
aI105838414
aI105725545
aI105925470
aI105751564
aI106489235
aI106057661
aI105758452
aI105879117
aI107755218
aI105866928
aI106210372
aI105761427
aI105874717
aI106356413
aI105826771
aI105794563
aI105734717
aI107290481
aI105813511
aI106083639
aI105752293
aI105764157
aI105715661
aI107182911
aI105804164
aI107628759
aI106314282
aI105932939
aI106157962
aI105735194
aI106215687
aI106030491
aI106151479
aI105795283
aI106264353
aI105722191
aI106192177
aI105717358
aI106813121
aI105740816
aI105715787
aI105989761
aI106282988
aI110397396
aI105925354
aI107181611
aI105924554
aI105969777
aI105724171
aI107641573
aI106767080
aI107208091
aI105732851
aI106286831
aI105921754
aI105754636
aI105725401
aI106727827
aI106494034
aI105892140
aI106693182
aI108257648
aI107446767
aI105858772
aI105715715
aI105806018
aI105764040
aI105948657
aI107514055
aI105906879
aI106889345
aI105761307
aI105761922
aI105878116
aI106427968
aI105871488
aI106133976
aI105970088
aI107027409
aI105734621
aI106517028
aI108055309
aI105869911
aI106015955
aI105946229
aI105980563
aI105764643
aI106513083
aI105741821
aI105807886
aI105748050
aI107690780
aI106210385
aI105725698
aI107770527
aI106544136
aI106870419
aI107652263
aI106232767
aI107048897
aI106906159
aI105917452
aI105718393
aI106517047
aI107229334
aI106146849
aI105732383
aI106339846
aI105741737
aI106937614
aI106023280
aI106446972
aI106487486
aI106378303
aI105850348
aI107762784
aI106488101
aI106194871
aI105724405
aI107155992
aI105748313
aI105751546
aI105933024
aI107258485
aI106575806
aI105724738
aI106141750
aI105757183
aI105764544
aI106159361
aI107559205
aI106915629
aI106440671
aI107134641
aI105751522
aI105933142
aI106121416
aI105804584
aI107089996
aI106173589
aI107183580
aI106019512
aI107671111
aI105818211
aI105761907
aI105803948
aI105841535
aI105872888
aI106384938
aI105741401
aI105963911
aI106849591
aI105808922
aI108563772
aI105764229
aI106190748
aI106138396
aI108126054
aI107829640
aI105847524
aI105759777
aI105750109
aI107652089
aI108317529
aI108524421
aI107128249
aI106605409
aI106015648
aI105750061
aI106303375
aI105802924
aI105753181
aI105989011
aI108259493
aI107841877
aI106002801
aI106432488
aI105759204
aI105756628
aI105741905
aI106526801
aI108185924
aI105805984
aI105902384
aI105790657
aI106094799
aI108736526
aI108143515
aI105722266
aI106473007
aI106738801
aI106937663
aI105799041
aI106134040
aI106830474
aI105732491
aI106556570
aI105734669
aI109356536
aI105841390
aI105741899
aI105917588
aI105734699
aI105934143
aI106062123
aI105753172
aI106886551
aI105753367
aI106817493
aI108322048
aI105754921
aI107748638
aI106373015
aI105895982
aI108873104
aI105850206
aI107312510
aI106099552
aI107416223
aI106386846
aI105995079
aI106085165
aI106718414
aI105815133
aI105938018
aI106795675
aI106333624
aI108503837
aI106183786
aI106712754
aI105734852
aI105847544
aI107693844
aI105740615
aI105799095
aI105732344
aI106885734
aI105808870
aI106826452
aI105818372
aI106328521
aI105925441
aI105898680
aI105910426
aI105858433
aI105721918
aI105740567
aI105748211
aI106033899
aI105868471
aI105866996
aI105739943
aI106955695
aI105840361
aI105722275
aI106758983
aI108275813
aI105762126
aI106399166
aI107628332
aI110256982
aI105751528
aI106015700
aI105808602
aI105938087
aI105723673
aI106276790
aI106467582
aI105722086
aI105956362
aI106999974
aI105756958
aI106668127
aI106084722
aI105874446
aI105740573
aI105759033
aI106667338
aI105910353
aI108999586
aI105835373
aI105790290
aI106990696
aI105817917
aI106098427
aI105900655
aI105905240
aI105717637
aI108209706
aI105717772
aI105813892
aI105762423
aI106035181
aI105799501
aI105939418
aI105717487
aI107413540
aI108276197
aI109856597
aI106130303
aI105717619
aI107213152
aI106566790
aI106190876
aI107426110
aI105736342
aI106058609
aI106869138
aI106599147
aI105967510
aI106172534
aI107179875
aI106182577
aI108326348
aI105764685
aI105917897
aI106469095
aI107648801
aI105764715
aI107672204
aI108282892
aI107699131
aI107263686
aI105751297
aI106979234
aI107094282
aI105722320
aI107541185
aI107666147
aI106820025
aI105723145
aI105823743
aI105748142
aI106282997
aI106134098
aI106699524
aI107772601
aI107664796
aI109345965
aI105723646
aI105758994
aI105844890
aI106498945
aI106509266
aI106582715
aI107148146
aI105820173
aI106782760
aI107603666
aI105892056
aI105761196
aI106761811
aI107071234
aI106249924
aI106702782
aI105714950
aI106541066
aI105752308
aI108317213
aI106397195
aI106159305
aI106807642
aI105827047
aI106121316
aI105740492
aI105753184
aI105844811
aI105725788
aI107263729
aI105758353
aI105981652
aI105963695
aI106015225
aI105957883
aI106002087
aI105750784
aI107725219
aI106020390
aI105755965
aI105841807
aI105905298
aI105792025
aI105732794
aI105790678
aI106807953
aI105757939
aI108177993
aI106002114
aI105758401
aI105821400
aI106890619
aI105950518
aI106081926
aI105855427
aI105748145
aI106498958
aI105982469
aI105722296
aI105995367
aI108136118
aI106112615
aI106804815
aI106719070
aI107657027
aI105885030
aI106116469
aI105892184
aI108167563
aI105758772
aI106579371
aI106193281
aI105722419
aI106499917
aI106721130
aI106686396
aI105732665
aI105982376
aI107754514
aI105717904
aI108337497
aI106052151
aI105871554
aI106502139
aI108273893
aI106004015
aI106059552
aI105740582
aI107682671
aI105753193
aI106585178
aI106616203
aI105917901
aI106258086
aI106132707
aI106072788
aI106732130
aI106216226
aI105742070
aI106793328
aI105753568
aI105967418
aI106962264
aI106874213
aI106070440
aI106249748
aI105722011
aI105794895
aI105891803
aI105734630
aI107222936
aI105799578
aI107920861
aI105715031
aI105869371
aI105752785
aI105740177
aI107220943
aI107103070
aI105821110
aI106811737
aI106793303
aI105801776
aI105715601
aI106217709
aI105845597
aI105724333
aI105718531
aI106058162
aI106414235
aI105868187
aI105892285
aI105819155
aI105756010
aI105714938
aI105892174
aI105718519
aI107078083
aI105762027
aI105995600
aI106194399
aI107263094
aI106017560
aI106516683
aI105752806
aI107111907
aI106138026
aI106782158
aI106892235
aI105759981
aI106001070
aI108264814
aI106057598
aI105869239
aI106379390
aI106126352
aI105798507
aI105970541
aI108200721
aI105714869
aI106410317
aI107312372
aI106962278
aI107048948
aI108670882
aI106775149
aI107652137
aI105822360
aI106937634
aI105750781
aI107879698
aI108273656
aI106232615
aI106820240
aI105998188
aI105762498
aI106458540
aI106422472
aI106124685
aI108241875
aI108303966
aI105902027
aI107856027
aI105715304
aI106083667
aI107261911
aI107815082
aI106066243
aI105718798
aI105826753
aI106420642
aI106175966
aI106218207
aI105999132
aI106744657
aI106712694
aI106863264
aI106733193
aI106137342
aI105996469
aI106792402
aI105759732
aI106265743
aI106843479
aI106741273
aI106092140
aI105724369
aI105722404
aI106287717
aI107263815
aI106621804
aI108762435
aI107594992
aI105949680
aI107234534
aI107128139
aI105741065
aI106007980
aI107699328
aI105748864
aI105718387
aI106445725
aI106577353
aI106158314
aI105793322
aI105740738
aI106792394
aI106075941
aI105751441
aI107807554
aI106063787
aI105732620
aI107768170
aI105741965
aI105714770
aI105943130
aI106519081
aI107693723
aI105838876
aI105789316
aI106079612
aI108133882
aI105722506
aI105802381
aI105750454
aI105724321
aI105755917
aI105966743
aI107246000
aI105750403
aI108328721
aI105741515
aI107433601
aI106490966
aI106029592
aI106762004
aI105761247
aI106243789
aI105741008
aI105722458
aI106265739
aI105741461
aI105757741
aI105870243
aI105717508
aI108372282
aI108285033
aI106026163
aI106302458
aI105814991
aI106317854
aI106221091
aI108252810
aI107514061
aI105722230
aI105846563
aI106822298
aI105910204
aI105721990
aI106222436
aI106148512
aI105931714
aI105721792
aI105714788
aI105799088
aI106222701
aI105934452
aI106177314
aI107745977
aI106883780
aI107569546
aI106269562
aI105813498
aI107830835
aI107365485
aI105867053
aI106980972
aI107505746
aI106280276
aI107075053
aI105761337
aI106123259
aI107251263
aI108260781
aI106630238
aI106603108
aI106586086
aI105732353
aI105740306
aI106195388
aI105725587
aI105761934
aI105990466
aI106550126
aI106195119
aI106532142
aI106193385
aI107128270
aI105968051
aI106388657
aI106329028
aI105886424
aI106437414
aI105915698
aI105741476
aI105842825
aI108124854
aI105969754
aI105883435
aI105916586
aI105718015
aI107471473
aI106713267
aI106718229
aI105748277
aI105959528
aI106129621
aI105856656
aI105808422
aI105724837
aI105799190
aI105904779
aI106286399
aI106601301
aI106286849
aI107282684
aI105763917
aI105758329
aI105998953
aI105846247
aI105764637
aI106859116
aI106261478
aI105930170
aI106502811
aI107641519
aI106548224
aI106264884
aI106045291
aI105997439
aI105902307
aI106127698
aI106021440
aI105763086
aI105760338
aI106509917
aI108199878
aI106651075
aI106029688
aI105827556
aI106251387
aI105938473
aI105741053
aI107768178
aI105972134
aI105946280
aI107183276
aI105917914
aI105735404
aI106727829
aI105913028
aI105751903
aI105753934
aI106038907
aI105993530
aI105797048
aI105757237
aI105859435
aI105974243
aI105740423
aI105751786
aI105740786
aI105984622
aI105752068
aI105866159
aI105724078
aI105794282
aI106009353
aI106630563
aI105963374
aI106673057
aI108751610
aI108134220
aI106505550
aI105722953
aI107552273
aI108147855
aI106054752
aI105748038
aI105847550
aI106222524
aI105752338
aI106217725
aI106014679
aI106761804
aI105722629
aI105756133
aI106912548
aI107126353
aI107775061
aI107572823
aI106051367
aI105717985
aI106539681
aI107795549
aI106782221
aI105846263
aI107948373
aI106875020
aI105926324
aI105811303
aI105872673
aI105748241
aI105753748
aI106101686
aI106739200
aI106995747
aI108212394
aI105925330
aI107720333
aI105814533
aI106121848
aI107682522
aI106200115
aI106457940
aI106022852
aI105964379
aI106165686
aI105808899
aI105734708
aI106915637
aI106969274
aI105751252
aI105763203
aI105722272
aI106006976
aI105758461
aI105791523
aI106128972
aI105761667
aI105849787
aI105798876
aI106302523
aI105852788
aI107505771
aI105920195
aI105714947
aI105818059
aI107106829
aI107065327
aI108177373
aI107534234
aI106697401
aI107358992
aI105861268
aI106598209
aI106294412
aI106370830
aI105865495
aI105760881
aI106763848
aI105751363
aI106517711
aI107722383
aI106315348
aI107132444
aI105956200
aI106073405
aI107124313
aI106169089
aI105889513
aI106024466
aI105763806
aI106955706
aI105732341
aI106856481
aI105741875
aI105858135
aI106949425
aI105757030
aI105904755
aI106537263
aI106025483
aI105750040
aI106183629
aI106711052
aI105740087
aI105756400
aI106144836
aI105759948
aI105869393
aI105820714
aI105883364
aI105888984
aI105742187
aI105830478
aI106193544
aI105812555
aI105722446
aI106820010
aI105801297
aI105717835
aI105819657
aI107632392
aI105725635
aI107200743
aI105749641
aI106309625
aI106696955
aI105925326
aI106995916
aI106143405
aI106532642
aI105755002
aI106565026
aI106146816
aI105723103
aI106516421
aI105753472
aI105732401
aI107981993
aI105748295
aI105715448
aI106774663
aI105761214
aI105999080
aI105819734
aI106043825
aI109071419
aI105830468
aI106041026
aI105753631
aI105760434
aI105718225
aI105761355
aI108117350
aI106232740
aI106520721
aI106069940
aI105717616
aI108425177
aI105760968
aI105753859
aI105756613
aI106460403
aI106790231
aI105741314
aI107691226
aI105740834
aI105984289
aI105883370
aI106046398
aI108290662
aI106600221
aI105967941
aI105741233
aI106869275
aI105911905
aI107729960
aI105939455
aI105718741
aI105758236
aI105750652
aI109259759
aI105811332
aI107292411
aI107683090
aI105717778
aI105969725
aI105923983
aI107000832
aI105722767
aI107753057
aI105757429
aI105947723
aI106530764
aI105832415
aI106002141
aI105723055
aI105748214
aI105764892
aI105717430
aI105761238
aI105722203
aI106091144
aI106295098
aI106383603
aI106210757
aI105874742
aI106063719
aI107828892
aI105910935
aI106088741
aI106124718
aI105718669
aI106240366
aI105967410
aI105867058
aI106624833
aI105764364
aI105749788
aI105948388
aI105732524
aI106005961
aI106228473
aI107110357
aI107051854
aI105753004
aI105717820
aI105723478
aI106900371
aI106328525
aI106337101
aI108037992
aI105764571
aI105927508
aI106177953
aI105763371
aI105714728
aI106050599
aI107640780
aI107526961
aI107177226
aI106032715
aI105865869
aI106584667
aI105926028
aI106523745
aI106317815
aI105715352
aI106997838
aI105760989
aI106518115
aI108450251
aI106296797
aI106590916
aI107582984
aI105758916
aI105714836
aI106193029
aI105754483
aI106885573
aI106127916
aI105789753
aI106225449
aI105866423
aI105734882
aI106255105
aI106049215
aI106909828
aI106653375
aI105869882
aI106789884
aI105732782
aI105714785
aI106887460
aI106684613
aI105944400
aI105755629
aI105835522
aI108440699
aI106001877
aI107111948
aI107830645
aI106000109
aI105932991
aI105734846
aI105732995
aI108159470
aI105721846
aI107111875
aI106564985
aI105714896
aI106260003
aI105717475
aI106469043
aI106211980
aI107327385
aI106690707
aI106515503
aI106176014
aI105925343
aI105715235
aI106569396
aI105715535
aI105723775
aI107328856
aI106194680
aI106937656
aI106079982
aI107124339
aI106427971
aI106586323
aI105796557
aI105732926
aI106820609
aI105754480
aI106018918
aI106174935
aI105763041
aI105844620
aI105796256
aI105758158
aI105755695
aI105715271
aI108134164
aI107756712
aI105927113
aI106103931
aI105755356
aI105949804
aI105721768
aI105980976
aI105756970
aI107229298
aI106445012
aI105957870
aI105804040
aI105880960
aI106141358
aI105933992
aI105864408
aI107903955
aI108326326
aI106559867
aI105870231
aI105840321
aI105838410
aI105741047
aI105795821
aI106512420
aI106004029
aI107082614
aI106026157
aI106582665
aI107143145
aI106182228
aI107222004
aI106009341
aI105853262
aI107258967
aI107722451
aI105836178
aI108221688
aI106652221
aI106552897
aI105734723
aI105939437
aI108415655
aI105718024
aI106230038
aI107564644
aI106699826
aI107070336
aI105754330
aI105755788
aI105941652
aI106186149
aI106329381
aI105915042
aI106230869
aI107228213
aI105759684
aI105757411
aI105977887
aI106244813
aI106579832
aI106262854
aI106017230
aI105818900
aI105755191
aI105722530
aI106058073
aI105990405
aI105763344
aI105750952
aI106004012
aI105803131
aI108393554
aI105717979
aI105760527
aI107326469
aI105998963
aI105920840
aI107214787
aI106294459
aI106255120
aI105970978
aI105715007
aI105752782
aI106882597
aI108460159
aI107755296
aI106579556
aI107114205
aI106304119
aI107375349
aI105826427
aI106466043
aI105762426
aI106837613
aI107694387
aI106655018
aI105749164
aI106159417
aI106957749
aI105947942
aI106422623
aI106402558
aI107606927
aI105759102
aI105757054
aI106330589
aI105881257
aI106133962
aI105990015
aI106286772
aI105741857
aI105724663
aI105751837
aI108831072
aI105755140
aI107662553
aI105870261
aI105717670
aI105985721
aI105717499
aI106025470
aI105740741
aI105856713
aI105959438
aI105722770
aI105760215
aI105762633
aI107824351
aI107245627
aI105765105
aI108217267
aI105873388
aI106000143
aI106388663
aI106911236
aI106154984
aI109899773
aI107323082
aI105740279
aI105878804
aI105722368
aI106645833
aI107442275
aI105756592
aI106071021
aI105959390
aI105998060
aI107621644
aI106522797
aI105732599
aI106604014
aI106015972
aI106523731
aI106281528
aI106937305
aI105836047
aI105732389
aI105740342
aI105935659
aI105753400
aI105748026
aI105755644
aI105991086
aI105883381
aI106689463
aI105763989
aI107048939
aI105740621
aI106579554
aI105750649
aI105910329
aI106599007
aI105754165
aI105732431
aI105735062
aI105740945
aI106062966
aI106561511
aI108367846
aI105821011
aI105722173
aI107059244
aI105717376
aI106980525
aI105732305
aI106730108
aI106600187
aI106172241
aI105902340
aI107225996
aI107768433
aI106604816
aI106254343
aI107672244
aI106125702
aI107251239
aI105829080
aI106020431
aI106805688
aI107105335
aI105748642
aI106021911
aI105977056
aI105800339
aI105752731
aI105989589
aI106875244
aI106918048
aI105740357
aI106028095
aI106128596
aI105880940
aI105724447
aI107231314
aI105755794
aI105724537
aI107263830
aI106328517
aI105724435
aI106317977
aI106614611
aI106376339
aI106800426
aI106693841
aI107549797
aI108067355
aI105717298
aI107722696
aI107793188
aI107564770
aI106145161
aI106886941
aI106295092
aI106481509
aI107629152
aI106255888
aI105998273
aI105957381
aI105758410
aI106032361
aI105752239
aI107844177
aI106739395
aI107550065
aI106227989
aI106562457
aI107617162
aI107595148
aI105885155
aI105825447
aI106125224
aI106014053
aI106261492
aI106585761
aI105741602
aI106282862
aI107878158
aI105752707
aI106645807
aI105837850
aI106075257
aI106058057
aI105740366
aI105985900
aI106969983
aI106825185
aI105715313
aI107273009
aI106530032
aI105966737
aI105733028
aI105759312
aI105884599
aI105718768
aI106910253
aI107693745
aI106302957
aI108390395
aI107537571
aI105748316
aI105868274
aI106702450
aI105715094
aI105925335
aI107065893
aI108078025
aI106266970
aI107684861
aI105715685
aI105715745
aI105959363
aI108425425
aI106963269
aI105722389
aI106287726
aI108538338
aI105970946
aI107176077
aI105853435
aI106476300
aI105752842
aI106336964
aI105732635
aI105721735
aI105846911
aI105740792
aI105790454
aI106544588
aI106137167
aI105869556
aI105969772
aI105753484
aI108317746
aI105862103
aI106397371
aI107680002
aI105748759
aI107569579
aI108380035
aI105897728
aI105722347
aI105803234
aI105902036
aI106055576
aI105801104
aI106517445
aI106302099
aI105762831
aI105757513
aI106327525
aI105735074
aI105735032
aI105721633
aI106466173
aI106228906
aI105886641
aI105945935
aI106194324
aI106517491
aI105753889
aI105732260
aI105764259
aI107362347
aI105868666
aI106845779
aI106133727
aI105842814
aI105931536
aI108640960
aI105945254
aI105989635
aI106020537
aI105841699
aI108268175
aI106783827
aI107652147
aI106700919
aI106042105
aI105852652
aI105748250
aI105821732
aI108065770
aI107815832
aI105754309
aI106021934
aI106487115
aI106955054
aI105723277
aI105763593
aI107178519
aI108241799
aI106049248
aI105717676
aI106537636
aI106754162
aI105820497
aI106026248
aI105829066
aI105867406
aI106365766
aI106824361
aI105752908
aI108132901
aI106025466
aI105755836
aI105806589
aI105958360
aI106502588
aI105888886
aI106502599
aI107804670
aI106300397
aI105741302
aI105805809
aI105754894
aI105759492
aI106970007
aI105764421
aI106236476
aI107070305
aI105761358
aI105758407
aI105941471
aI105790017
aI105888134
aI108256698
aI105985342
aI105762120
aI107469883
aI106036361
aI106949852
aI105740531
aI105749851
aI106484453
aI105753514
aI106995940
aI106032851
aI105741044
aI105926144
aI106391774
aI105983419
aI105756379
aI106399684
aI105722377
aI105996213
aI106074033
aI105741815
aI106167548
aI105851509
aI108084715
aI106821267
aI105808866
aI105740270
aI106302474
aI106399178
aI106928644
aI105740897
aI106018712
aI106182271
aI108461993
aI105764574
aI106505501
aI106006006
aI105799062
aI107455347
aI105741497
aI105740975
aI105718753
aI106088058
aI106132196
aI106252669
aI105739922
aI107378943
aI106089657
aI105723301
aI105752281
aI107326000
aI105869571
aI106731301
aI106008134
aI105762246
aI106337835
aI105804903
aI106001090
aI106417009
aI105721927
aI105902255
aI106593331
aI105725428
aI106889451
aI105857614
aI106542798
aI106949735
aI106574284
aI105939339
aI105754489
aI105856725
aI105715082
aI105753361
aI105721744
aI107209631
aI106065234
aI107177018
aI107772537
aI106880494
aI106686416
aI105944680
aI106001970
aI105857146
aI105804014
aI105717331
aI106001608
aI107054527
aI105901381
aI105982360
aI107784443
aI105748020
aI105983540
aI105837925
aI105827721
aI106787034
aI108134925
aI105839877
aI106083687
aI105791012
aI105763689
aI106141398
aI106359304
aI107377663
aI105715238
aI106551841
aI105753829
aI106504520
aI106287360
aI106924655
aI105793355
aI106022092
aI105942465
aI105751336
aI107743315
aI106045283
aI106942558
aI106544069
aI105752200
aI105760227
aI105950090
aI106068403
aI106187188
aI106128420
aI105718738
aI106185056
aI106157888
aI106500890
aI105957572
aI105857292
aI105759222
aI106054644
aI106082612
aI106005291
aI106232722
aI106157907
aI106604424
aI108117401
aI108304345
aI106469455
aI105763302
aI106590944
aI105732239
aI107037481
aI105725239
aI106276975
aI105818020
aI105849372
aI106444366
aI106058396
aI105764586
aI106562837
aI105724981
aI106300088
aI107266908
aI106709506
aI106254325
aI105941861
aI108350219
aI107633493
aI105741221
aI107200557
aI107162637
aI105839905
aI105732614
aI105740780
aI109188843
aI105992133
aI106193454
aI105764025
aI106260028
aI106020469
aI105752656
aI105757558
aI107367966
aI106001220
aI105859077
aI105760953
aI106073047
aI105761877
aI106879658
aI107892916
aI109103103
aI106924124
aI105895689
aI105740480
aI105724939
aI106958917
aI107454465
aI105975347
aI106194074
aI105904772
aI107073719
aI106081917
aI107738083
aI105835097
aI107874765
aI105893133
aI107051685
aI106218531
aI107230336
aI107930824
aI108643114
aI105754909
aI105725245
aI105915030
aI107271224
aI105920725
aI105721924
aI105750661
aI107265808
aI108226542
aI106170048
aI107783253
aI105751390
aI105870266
aI105973231
aI105754822
aI106742481
aI105751711
aI105717337
aI106273342
aI106417458
aI105752863
aI105722998
aI105732677
aI105808839
aI105856439
aI106011574
aI106193159
aI105904750
aI106006916
aI107970105
aI106363085
aI106852986
aI105725704
aI106571875
aI105812540
aI107855134
aI105754588
aI106466049
aI106720772
aI105799490
aI106175682
aI105916629
aI105939730
aI107412042
aI105814367
aI105717526
aI106924634
aI106076330
aI105991940
aI105848972
aI105880914
aI105758026
aI106222698
aI106031516
aI106772948
aI107773529
aI105718276
aI105962573
aI106075137
aI105741449
aI105842838
aI105865652
aI106176629
aI106229165
aI105975926
aI106425512
aI106165717
aI107208963
aI106668251
aI106132087
aI106063725
aI105980558
aI108191844
aI105845493
aI105798792
aI105856800
aI105734870
aI107204503
aI105723247
aI106327535
aI105866225
aI105733139
aI106313649
aI106519198
aI105722245
aI105725059
aI105722095
aI105715175
aI108281779
aI106457326
aI105820575
aI106177664
aI105741068
aI106487071
aI105894747
aI106441186
aI105803148
aI105959381
aI108232331
aI105718432
aI105988995
aI105841235
aI105792672
aI105868461
aI105859218
aI105761640
aI105724612
aI108061908
aI105718654
aI108103171
aI106290265
aI105867066
aI106874202
aI105714920
aI105758053
aI106866038
aI106079593
aI107694373
aI106011920
aI105762459
aI105722764
aI105754168
aI108398015
aI105934194
aI107183571
aI105755137
aI106590878
aI105723778
aI106073694
aI106498788
aI106402120
aI106124822
aI106169029
aI105851970
aI105757072
aI107828869
aI106473434
aI105895459
aI106185023
aI106081850
aI105805804
aI105787723
aI105715589
aI105717694
aI105828459
aI106584817
aI106803063
aI107347218
aI105811307
aI105734711
aI106518784
aI105855762
aI105764745
aI106253127
aI106200439
aI106042177
aI108138896
aI107238596
aI105740561
aI109086365
aI105753952
aI106248461
aI105760986
aI105715709
aI108295353
aI107652214
aI107561960
aI105905267
aI105758320
aI107685403
aI105881475
aI106155974
aI106204869
aI105741074
aI106179834
aI106313263
aI105724318
aI105741812
aI106233357
aI106863282
aI105935682
aI105722344
aI105748358
aI105988554
aI105827702
aI105741659
aI105732881
aI105883194
aI105748032
aI105732992
aI105758317
aI105755635
aI105732566
aI106274763
aI105839895
aI105759207
aI105763284
aI106240552
aI105856762
aI106761990
aI106058652
aI105718792
aI105996498
aI105796562
aI106229329
aI105722950
aI105920912
aI105763122
aI108214806
aI105792792
aI105754069
aI106230860
aI106731336
aI105874459
aI105717634
aI105757849
aI106517807
aI106010421
aI105741830
aI105989582
aI106910278
aI105752884
aI107704763
aI105789165
aI106453199
aI105802175
aI106264026
aI106902410
aI105754657
aI105758032
aI107132492
aI105939229
aI105734690
aI106314286
aI106200458
aI105721663
aI107203308
aI105827243
aI105753739
aI106218501
aI106819097
aI105754849
aI107202884
aI105724609
aI106000331
aI106207758
aI105962340
aI108281726
aI107510466
aI105859447
aI106225707
aI105956153
aI105735098
aI106265020
aI109150168
aI105973189
aI106849486
aI106877274
aI105718705
aI106577043
aI105929580
aI105718804
aI105717961
aI106116195
aI105732554
aI105740552
aI107263842
aI106513096
aI105715187
aI108326292
aI107433539
aI105795000
aI106920312
aI105717673
aI108391911
aI106630552
aI105723574
aI107292463
aI106291286
aI106956734
aI105722149
aI105827746
aI106445702
aI108281780
aI105991229
aI106170736
aI105734774
aI105740705
aI106712556
aI106849536
aI106538899
aI105753109
aI106258705
aI105959760
aI106268346
aI107131418
aI105942799
aI106146799
aI107251693
aI105838031
aI105814483
aI105735371
aI105741536
aI106863252
aI105789934
aI106554245
aI105758518
aI105755704
aI107764562
aI107248682
aI105815014
aI105758940
aI106521705
aI105848958
aI106123658
aI106172079
aI105751501
aI106399185
aI105963944
aI106170442
aI106170615
aI105892279
aI105748099
aI108837330
aI105753379
aI107670133
aI106949840
aI107380855
aI108257819
aI108688311
aI105924815
aI105717823
aI105923651
aI106829277
aI105947340
aI106188146
aI105936538
aI105752245
aI105946991
aI106998598
aI105740468
aI106599016
aI107612139
aI105945925
aI105955441
aI105721669
aI109285966
aI105956405
aI108117584
aI105749863
aI106267024
aI105717850
aI107302258
aI105989631
aI106346180
aI106564938
aI105722113
aI105753478
aI107704756
aI107156609
aI105878085
aI105748981
aI105804599
aI106017552
aI106737351
aI108726609
aI107877245
aI105749449
aI107250565
aI106121860
aI106255429
aI106008392
aI105863822
aI105844760
aI107270232
aI107828882
aI105836583
aI106328263
aI106687757
aI105721738
aI107433576
aI105981519
aI105753469
aI107775596
aI105867836
aI105944513
aI108934274
aI105868036
aI106927822
aI106052767
aI105733076
aI107773544
aI105822353
aI106593809
aI107486305
aI105722248
aI105933396
aI105884605
aI105748891
aI107379766
aI105948856
aI106650555
aI105754645
aI105753757
aI106482011
aI105921315
aI107233797
aI106696458
aI105721945
aI106347324
aI107758342
aI108649904
aI105841176
aI105904804
aI105818206
aI106331960
aI106799115
aI106580970
aI106432502
aI107567129
aI105973742
aI106329681
aI105739985
aI105735113
aI110424981
aI109444241
aI105874455
aI105765195
aI106370711
aI107001387
aI105931708
aI105813502
aI106609870
aI105717982
aI105741284
aI107185903
aI105825054
aI106460891
aI106118529
aI106502834
aI105828859
aI105756979
aI106232758
aI106083610
aI108252852
aI106547575
aI105852519
aI105961400
aI105881059
aI106692049
aI105812344
aI106085039
aI105759891
aI105741530
aI105715190
aI105983563
aI105761394
aI106544503
aI105718189
aI106662702
aI105740138
aI106973588
aI106875000
aI105833552
aI107760393
aI105862550
aI107255588
aI105963328
aI105751633
aI107190078
aI107286687
aI109545922
aI106087605
aI106167844
aI105754054
aI106830963
aI106187885
aI105810334
aI105718537
aI105740414
aI105734885
aI107169095
aI105732662
aI105717325
aI105802002
aI106249856
aI105840700
aI105763212
aI106852348
aI105820177
aI106798812
aI105933180
aI106231643
aI106078776
aI107202891
aI105793214
aI105724789
aI106125265
aI106446975
aI105973398
aI105715571
aI106142558
aI106020437
aI106580909
aI107070269
aI106589156
aI105734819
aI105795294
aI106244849
aI105990771
aI108450436
aI105754210
aI106763912
aI105857577
aI105855768
aI107182647
aI105748008
aI106868026
aI105718306
aI105755671
aI105741740
aI106574159
aI106915706
aI105742016
aI107017423
aI106078454
aI105718441
aI106046000
aI105741362
aI105952398
aI108425035
aI105724294
aI105763428
aI106896030
aI106021419
aI105935932
aI105855666
aI106066019
aI105991831
aI107555397
aI105762288
aI106249062
aI105715613
aI105874232
aI108155879
aI106002161
aI108326404
aI105755077
aI107003796
aI107964754
aI106137815
aI105874485
aI105752722
aI105844203
aI105725509
aI106263801
aI106152138
aI107561779
aI106178010
aI105792268
aI105945535
aI106007960
aI105889232
aI105722293
aI105763194
aI105821404
aI106007882
aI107207858
aI105825065
aI105814581
aI105761766
aI105749965
aI106054668
aI105953404
aI107216212
aI106049230
aI105760296
aI107652133
aI110312893
aI105963178
aI105756502
aI108981676
aI106687732
aI107704743
aI105820138
aI105794394
aI105740387
aI108644963
aI105989002
aI105757414
aI107860329
aI105997594
aI105873569
aI106906293
aI105762603
aI105918037
aI106233495
aI105864801
aI105753331
aI105764391
aI107001410
aI106006012
aI105872592
aI106042441
aI106978712
aI105918096
aI106517461
aI105970269
aI105991732
aI105800006
aI105725386
aI107245561
aI105752914
aI106574382
aI108265840
aI105751471
aI105805906
aI106215682
aI106385215
aI105758727
aI107179849
aI105823222
aI106919748
aI106831673
aI107136687
aI106547528
aI106080084
aI106884452
aI105810640
aI105759585
aI107123653
aI105722428
aI105820517
aI105850325
aI105932987
aI105717628
aI106157497
aI106534685
aI105857218
aI106728424
aI105929478
aI105954124
aI108146751
aI108645264
aI105863104
aI105856794
aI105751657
aI105973043
aI105724228
aI107801905
aI105818493
aI105753070
aI105715574
aI106109252
aI106301291
aI105752608
aI105756187
aI105759003
aI106609865
aI105724072
aI106374515
aI105804241
aI107052784
aI106148101
aI109565046
aI107355023
aI106273549
aI106028041
aI105880847
aI105936665
aI106041230
aI108184920
aI107251252
aI106010112
aI105740228
aI105740174
aI105715697
aI107368574
aI107758232
aI105734633
aI105910444
aI106819293
aI105724183
aI106585768
aI106297965
aI105795777
aI105803539
aI107783559
aI105939475
aI106551868
aI105758017
aI106132806
aI105750778
aI105735716
aI106020380
aI106131312
aI106002940
aI106595545
aI105957082
aI106900406
aI105960470
aI106261005
aI106280362
aI105748999
aI105891241
aI105723979
aI105900007
aI107772567
aI106197483
aI106679458
aI105751249
aI107179547
aI107776651
aI106894183
aI105748044
aI106875546
aI105765039
aI106585962
aI105869878
aI105847889
aI105962327
aI105829988
aI105958272
aI106933821
aI105878191
aI105815166
aI106499901
aI105800492
aI105741482
aI105850833
aI109154673
aI105827636
aI105844461
aI107286638
aI105723577
aI105865038
aI105762456
aI105841251
aI105722980
aI105722689
aI106165580
aI105846782
aI106022527
aI107080870
aI105718006
aI107812485
aI106497166
aI105761847
aI106818981
aI106443441
aI107699032
aI105959353
aI105881021
aI106538886
aI105811535
aI107629071
aI105764175
aI105715043
aI105740336
aI105860741
aI106472994
aI105741539
aI105717919
aI105762552
aI107273230
aI105714764
aI108056770
aI106045278
aI106519181
aI106425674
aI107249874
aI105812429
aI106047075
aI110551939
aI105751660
aI106621437
aI105811909
aI105976339
aI105983315
aI105815098
aI106007144
aI107164241
aI106276911
aI105761262
aI105916323
aI105751426
aI107231754
aI107030831
aI106548873
aI107234517
aI107874857
aI106849248
aI105765201
aI107214752
aI105800896
aI105886742
aI107250835
aI105764853
aI105862679
aI105760278
aI105972150
aI105945108
aI106950430
aI105741839
aI106066644
aI107550122
aI106502679
aI106337085
aI105748041
aI105755242
aI105798938
aI105732314
aI105732611
aI106448156
aI105843491
aI106226921
aI105717550
aI105717370
aI106207718
aI106916441
aI105752620
aI110494969
aI105947947
aI105948305
aI105753850
aI105822191
aI107509741
aI106443443
aI107860025
aI107551914
aI105985832
aI105895536
aI105827564
aI106416128
aI105803451
aI107828846
aI105740597
aI105732521
aI106516318
aI105808911
aI105741269
aI107963789
aI105753253
aI106055694
aI106072905
aI105887849
aI105946155
aI106002633
aI106904349
aI105732914
aI106582612
aI106517818
aI107624371
aI107620044
aI105754270
aI105842297
aI105967547
aI107680025
aI106234677
aI105732725
aI106861046
aI105886633
aI105943135
aI107241565
aI106713286
aI106425704
aI105723622
aI105732530
aI107302321
aI105760911
aI108637577
aI105715682
aI106721971
aI105899225
aI105749869
aI108336648
aI106032487
aI105759828
aI106427940
aI106264160
aI105718090
aI107110074
aI105752089
aI105715013
aI105838025
aI105898699
aI105723046
aI105930643
aI105749557
aI105753115
aI106768055
aI108424150
aI105897095
aI105715307
aI108370872
aI106392756
aI106795686
aI108397987
aI106674301
aI106046894
aI106498837
aI106012865
aI107670089
aI107700397
aI106744592
aI105957603
aI106078785
aI105909834
aI105881074
aI107680521
aI105971056
aI105761253
aI105799349
aI106065691
aI107263422
aI106075200
aI106042167
aI107304439
aI105725725
aI107483806
aI106428365
aI105824790
aI106894795
aI105741119
aI105870026
aI105752566
aI107968316
aI107321623
aI106678821
aI105803094
aI106006893
aI105893126
aI105818088
aI105733112
aI107227969
aI105741512
aI105724186
aI106020342
aI105757240
aI106123689
aI105724600
aI105798733
aI105736016
aI105886344
aI105903259
aI105724039
aI106496085
aI105803570
aI105717415
aI106015991
aI106959758
aI105759915
aI105754141
aI105753061
aI105896493
aI105880407
aI107669367
aI105750682
aI106081874
aI105891711
aI106009654
aI107104135
aI106136209
aI105862873
aI105722059
aI105753700
aI105963366
aI106551880
aI105758257
aI106887421
aI106077032
aI106043383
aI106178016
aI106392764
aI107025589
aI105718270
aI105759081
aI107780458
aI105717412
aI108191851
aI108593505
aI107278026
aI105761010
aI106949444
aI105748915
aI105762243
aI106313936
aI106058065
aI107246018
aI106128257
aI105889245
aI105791922
aI105863220
aI105803070
aI106704876
aI107860456
aI106032505
aI105740012
aI107529258
aI105813481
aI106340063
aI106078499
aI105802275
aI107272756
aI105754144
aI106424373
aI105717691
aI106039762
aI105885179
aI106951075
aI105950098
aI106037118
aI106511334
aI107605039
aI106264216
aI105757903
aI108892271
aI107736611
aI106057108
aI105916076
aI105740519
aI107230062
aI106473002
aI105722020
aI106066661
aI105741278
aI107095312
aI106878189
aI105723781
aI105956542
aI105860693
aI106389654
aI105925305
aI105722119
aI106183822
aI105724168
aI105732812
aI105732323
aI106242008
aI106436162
aI105749746
aI105938109
aI106289316
aI106126244
aI105732986
aI105756688
aI105753703
aI107379148
aI105899993
aI105742076
aI109167898
aI106075387
aI106820470
aI106709536
aI108382643
aI105940471
aI105757438
aI106881403
aI107693373
aI105725659
aI108117451
aI105790710
aI105917962
aI106528949
aI106505506
aI105732293
aI106215913
aI105923079
aI109040893
aI106503831
aI106471624
aI105749248
aI107379163
aI105827650
aI106809018
aI105787739
aI106115483
aI105858062
aI106442378
aI105717949
aI106581771
aI107443410
aI105819764
aI106686078
aI106112719
aI106441298
aI108952238
aI106876372
aI105751789
aI105950010
aI106242038
aI105723016
aI105866724
aI105752836
aI105811342
aI106121675
aI105922105
aI105715508
aI106215691
aI106112856
aI106393583
aI105883684
aI105761163
aI105817042
aI106565001
aI105717361
aI105753280
aI105827683
aI105887315
aI106757172
aI105762141
aI106334840
aI106545520
aI106059281
aI106703124
aI105840317
aI105724390
aI106080993
aI107329629
aI105808221
aI106609255
aI105921622
aI106811013
aI105723412
aI105715619
aI106734614
aI105955582
aI107652296
aI105914358
aI105764967
aI105752584
aI106315661
aI106521698
aI105732731
aI105934922
aI105740570
aI106303627
aI105855562
aI105802279
aI107261451
aI107478761
aI106007156
aI106002147
aI107359008
aI106954084
aI105949627
aI105877243
aI105717817
aI106992718
aI106049542
aI106159436
aI105836398
aI106183712
aI106009347
aI108408374
aI106023621
aI105748801
aI106748196
aI105741320
aI105764418
aI106218484
aI106792003
aI106146106
aI105762057
aI105918435
aI106891606
aI105740618
aI105763770
aI106245725
aI106166490
aI105809755
aI106446984
aI105885049
aI105714959
aI105984609
aI105762510
aI106110331
aI106027239
aI105748636
aI106813156
aI106345224
aI105757186
aI105836722
aI105732368
aI105813442
aI105834134
aI106881904
aI107230099
aI106899039
aI105844911
aI106193143
aI105750787
aI106514378
aI106753365
aI107230734
aI107693831
aI106020648
aI108220733
aI106887211
aI105717292
aI105761046
aI106312441
aI106411368
aI106144846
aI105949790
aI107042042
aI106439560
aI106104569
aI105718009
aI105741260
aI105835754
aI106718688
aI106556664
aI106221009
aI106225693
aI106604805
aI105875465
aI107884583
aI105753148
aI105764826
aI108226533
aI106321534
aI105755326
aI105717505
aI107136770
aI106239784
aI106757210
aI107849898
aI106962365
aI105808849
aI105839331
aI107768475
aI105752554
aI106229243
aI106705679
aI105752359
aI107694665
aI105753550
aI106585771
aI105724090
aI105798933
aI105722680
aI107745089
aI105874598
aI106504048
aI107793518
aI106181256
aI107207556
aI107070323
aI105915273
aI105724240
aI105913834
aI105969759
aI105918062
aI106469056
aI105884835
aI105757213
aI105826040
aI106784951
aI106886896
aI106421769
aI107114275
aI106957951
aI106582587
aI105869707
aI105887161
aI105835133
aI106842574
aI106191286
aI105761469
aI107447499
aI106252233
aI105750517
aI105880454
aI105843487
aI105725761
aI108081842
aI105740213
aI106080088
aI106696451
aI106225454
aI106159245
aI105718300
aI107526868
aI107506355
aI105900951
aI105990385
aI105723289
aI105755878
aI105882480
aI105763590
aI106425683
aI107599462
aI106286388
aI105864166
aI106329364
aI105822227
aI105808861
aI106075680
aI105840529
aI105957576
aI106252682
aI105756439
aI105722326
aI107883640
aI106386599
aI105741251
aI106598700
aI106968161
aI107345416
aI105819280
aI107124331
aI106596612
aI106411341
aI105722920
aI106155939
aI106062099
aI105761373
aI107716938
aI107321345
aI106736344
aI107136749
aI106280011
aI107572955
aI105881869
aI105860281
aI105725281
aI107129115
aI105722041
aI107133770
aI105759078
aI105826816
aI106777929
aI105715505
aI105920056
aI105722008
aI105724855
aI105918869
aI105740450
aI106127530
aI107696956
aI106169612
aI106512347
aI106065125
aI106165188
aI108301230
aI106388184
aI106135301
aI106456142
aI107395879
aI108140597
aI107233979
aI105748618
aI109090151
aI105755302
aI105722386
aI106425489
aI105717439
aI106062132
aI106857922
aI105724492
aI107603650
aI106882881
aI105749041
aI107341061
aI105751504
aI106170113
aI105947967
aI107203612
aI107797205
aI106819123
aI107122342
aI106135530
aI105842889
aI105714881
aI106492437
aI105832005
aI105881013
aI106333385
aI106439274
aI105866381
aI105760611
aI105753322
aI106651135
aI106158125
aI105818217
aI106798265
aI105732863
aI106737328
aI108263642
aI105798604
aI105990544
aI105748633
aI105761076
aI105762666
aI106051361
aI106509963
aI106266483
aI107306489
aI105940765
aI105807138
aI105724408
aI105752569
aI106920648
aI106352318
aI110130825
aI105754333
aI106177056
aI106969859
aI108372532
aI106059734
aI106779359
aI105752653
aI105761145
aI107256788
aI105870326
aI106001237
aI107088186
aI106129021
aI105846639
aI106274295
aI109253292
aI107289745
aI105789028
aI105865483
aI106590833
aI106042438
aI106871537
aI105752551
aI105958753
aI108273856
aI105867613
aI106333393
aI105985536
aI107436847
aI105980556
aI105813473
aI105733019
aI105910355
aI105897059
aI105888283
aI105755578
aI106881790
aI105832470
aI106052898
aI105722338
aI107029417
aI105740201
aI105758608
aI106686441
aI106574005
aI106038227
aI105998282
aI105723355
aI105820884
aI105751621
aI106183204
aI105790438
aI105866062
aI105995620
aI105828029
aI105923021
aI107633439
aI105717529
aI105756907
aI106727576
aI105765186
aI108236742
aI105931946
aI106269300
aI105882347
aI106385208
aI107073613
aI105732641
aI105851991
aI106713522
aI106399353
aI105751870
aI106441842
aI107310492
aI105749569
aI105764436
aI106076830
aI107693367
aI105894973
aI106207686
aI105733118
aI105740663
aI106009756
aI105751804
aI107682359
aI105794262
aI108697120
aI105764832
aI106312487
aI105724117
aI106111043
aI105891452
aI108177883
aI107755928
aI105922323
aI105956196
aI107336787
aI105879421
aI105996539
aI105759927
aI105806655
aI106049635
aI105758023
aI105941784
aI107185362
aI106565377
aI105938017
aI106192676
aI105897704
aI107434220
aI107691242
aI105717784
aI105740495
aI107828947
aI106544067
aI105959460
aI105962933
aI106309912
aI105749119
aI105756385
aI106059211
aI106541947
aI106281201
aI105808831
aI106921482
aI105715550
aI105763488
aI105827671
aI105762948
aI105753895
aI105741023
aI108326331
aI105755236
aI105913039
aI105812642
aI106065316
aI105740723
aI105748708
aI106972226
aI105877545
aI105948367
aI105798511
aI105741281
aI105864062
aI105725071
aI107291188
aI105835710
aI105968238
aI107338358
aI105751387
aI105840256
aI106034980
aI105810605
aI105753034
aI107374627
aI105717382
aI105763350
aI105988555
aI107097791
aI106617601
aI108043931
aI106010810
aI106548488
aI105803185
aI105754468
aI105741653
aI105748756
aI105991106
aI105722632
aI105835900
aI107105278
aI105741407
aI107122356
aI105718339
aI105765045
aI107652008
aI105819806
aI105714878
aI105838540
aI106692671
aI105740984
aI107641448
aI105717559
aI105806145
aI105741173
aI106344281
aI107310412
aI106385088
aI106151904
aI108827232
aI106746292
aI107226074
aI105757000
aI105760545
aI105762234
aI106003114
aI105732362
aI107302489
aI105722317
aI105722782
aI105971796
aI106562228
aI106193861
aI107586313
aI105761034
aI106071435
aI107769772
aI106002381
aI105762546
aI105755053
aI106155187
aI105814034
aI106241978
aI107093445
aI106992688
aI106055079
aI105803003
aI105762870
aI108927129
aI105828966
aI106589461
aI107860022
aI105972375
aI105741932
aI108681030
aI105751831
aI108224803
aI105715349
aI105959754
aI106987720
aI105755782
aI106163476
aI106959172
aI105715454
aI106019165
aI105790945
aI105715160
aI106051378
aI105939343
aI105992111
aI105752374
aI105866210
aI106579695
aI107221217
aI105748084
aI108033560
aI105722572
aI106014499
aI105967843
aI105758047
aI105760239
aI106411330
aI106123164
aI106135645
aI105965171
aI106682554
aI105948094
aI105851624
aI105841531
aI107641581
aI106144856
aI106582024
aI106425538
aI105870316
aI106177967
aI107400081
aI105915149
aI105762798
aI106966846
aI105862944
aI108338622
aI105732332
aI105980837
aI105752905
aI105733010
aI105714716
aI108241887
aI105840692
aI105725038
aI106869596
aI106441777
aI106078469
aI106233765
aI105961747
aI105753982
aI105930186
aI105715343
aI105946221
aI105889479
aI105754429
aI106711232
aI105939242
aI105740297
aI105757711
aI105863230
aI105847459
aI107121934
aI108218824
aI106805978
aI105845930
aI105906981
aI105748855
aI105752254
aI106340059
aI106502853
aI107659257
aI107669298
aI105734732
aI106455191
aI105742010
aI105757420
aI107290020
aI105740558
aI105748169
aI105886627
aI105732806
aI105717586
aI105957597
aI106850468
aI105715253
aI106520871
aI106309947
aI106194294
aI106502557
aI105889544
aI105750694
aI105754678
aI106487044
aI105918047
aI106476816
aI105965199
aI106718896
aI105740882
aI107770372
aI106819074
aI105741989
aI105758907
aI106300396
aI106212557
aI105906947
aI105752812
aI105979707
aI106445750
aI107655977
aI106333594
aI107878537
aI107270238
aI105757681
aI105734777
aI105756418
aI106159394
aI105856729
aI106077545
aI105732899
aI107353417
aI109019185
aI106603157
aI106414317
aI106003242
aI105754903
aI105725389
aI106264278
aI105902335
aI105891224
aI106283308
aI105752929
aI107716958
aI106078504
aI108193184
aI105994323
aI105756787
aI107516922
aI108278513
aI106193107
aI105715592
aI105723298
aI106027653
aI106762399
aI107527007
aI105721981
aI106334493
aI105886965
aI106774183
aI106017041
aI105812551
aI105724495
aI106657106
aI106792369
aI106129808
aI105934919
aI105835496
aI107781733
aI105740084
aI105753376
aI106059217
aI106065189
aI106455666
aI106823863
aI107828826
aI106562992
aI107252963
aI105870891
aI105962097
aI106123184
aI106136699
aI108178019
aI106813204
aI105919218
aI106791341
aI105732269
aI107223346
aI105868660
aI105929329
aI106283283
aI107758460
aI106564948
aI106937694
aI106265923
aI108036270
aI105850220
aI106252692
aI109612068
aI105841394
aI105923846
aI106612664
aI105718348
aI105718462
aI105903139
aI107313936
aI107680013
aI106515697
aI105973026
aI106335063
aI107611857
aI105803655
aI108563786
aI106465356
aI105732644
aI105758763
aI106235614
aI107841036
aI108373424
aI106272837
aI107526184
aI105813333
aI106138056
aI105796710
aI105804292
aI105759594
aI105809771
aI106124912
aI105721882
aI105869608
aI106176798
aI107065849
aI105732953
aI105883422
aI106439545
aI105723565
aI108020120
aI106911222
aI105761208
aI106079606
aI108211357
aI106020509
aI105981056
aI107203331
aI105862632
aI106544080
aI105714749
aI106971196
aI106441346
aI106725230
aI105889918
aI107188194
aI107677399
aI106339178
aI105893136
aI105811870
aI105846613
aI105941462
aI107094379
aI105933997
aI106028197
aI106195103
aI106280366
aI106754141
aI105982745
aI105753862
aI105896088
aI106042450
aI106221614
aI105877242
aI106056175
aI108320993
aI105899213
aI107072920
aI106125118
aI107095297
aI106129754
aI105718774
aI105740837
aI105754516
aI105763389
aI108183094
aI105799102
aI105877430
aI106077540
aI106140318
aI107700417
aI105715184
aI107772591
aI106180680
aI106029102
aI105899745
aI106574480
aI106011317
aI107526874
aI106001915
aI106358811
aI107776858
aI105762738
aI105758125
aI105724042
aI105733136
aI105753763
aI106532800
aI105761367
aI105753100
aI106229916
aI107602277
aI106870487
aI106186163
aI105740309
aI106176598
aI105732920
aI105764895
aI106898309
aI105732233
aI106034416
aI106733389
aI105756415
aI107001551
aI105811868
aI105798411
aI106882218
aI106302006
aI105866027
aI106519152
aI107385681
aI107254915
aI106217733
aI105944541
aI105756484
aI107030847
aI108233079
aI105889521
aI105764760
aI106257698
aI106421490
aI105717925
aI109297964
aI106451950
aI107100581
aI105999085
aI105724270
aI106403153
aI106334510
aI105717571
aI107688663
aI106935993
aI105860631
aI107251187
aI106489245
aI105718675
aI105764682
aI105948072
aI106158014
aI106160862
aI105854070
aI106211681
aI105942208
aI108082183
aI106946197
aI106792623
aI106075607
aI105761049
aI105885386
aI106078079
aI107251225
aI106058069
aI106416147
aI106512700
aI106509246
aI107238454
aI106256915
aI105865895
aI105943552
aI106810610
aI105764358
aI105874604
aI105722470
aI105761760
aI105846251
aI109071424
aI105741890
aI106016899
aI107271215
aI107852154
aI105717457
aI106286394
aI105736022
aI105765189
aI106081940
aI106604790
aI105740474
aI105756559
aI106702950
aI105754705
aI105884971
aI105741095
aI105841694
aI105741122
aI105718138
aI107652060
aI105789342
aI106511503
aI107124319
aI106083752
aI105723241
aI106596078
aI106062175
aI106055494
aI106272484
aI105763311
aI105860751
aI105910625
aI107204390
aI107155080
aI107461463
aI106929493
aI105853365
aI106788807
aI105741218
aI107168843
aI106403103
aI105958354
aI107859007
aI105850226
aI107556606
aI105740690
aI106025475
aI107878142
aI105722800
aI105959522
aI106113566
aI105725551
aI106112901
aI106751817
aI105836297
aI105823647
aI107227259
aI108165689
aI107565353
aI106906235
aI106548683
aI106067495
aI105877534
aI106612025
aI105791058
aI106863082
aI106180532
aI106798163
aI105803971
aI108166810
aI105732404
aI105920155
aI105926287
aI107608379
aI105862083
aI105871252
aI105717442
aI106456409
aI106049555
aI105839219
aI105982849
aI106065226
aI105756535
aI107231977
aI107356372
aI106041632
aI105714824
aI106657179
aI105718195
aI105801940
aI107397712
aI105828725
aI106217003
aI106065805
aI105879726
aI107254730
aI106484047
aI105735725
aI105902686
aI106792065
aI105933907
aI106635295
aI108269608
aI105759111
aI106804861
aI106807604
aI105724252
aI105725578
aI106316141
aI106298924
aI107225035
aI105724387
aI109881948
aI105823668
aI106745525
aI105921772
aI107652194
aI106176667
aI108326364
aI106090776
aI106166238
aI106397749
aI105725065
aI106020396
aI106624810
aI105794651
aI106295614
aI105798888
aI106720488
aI105947041
aI105762390
aI106177392
aI105839948
aI105934549
aI106900418
aI105837404
aI107661317
aI107546669
aI106468719
aI107296072
aI107758359
aI105725101
aI106410777
aI105910210
aI105740555
aI107423155
aI105721951
aI105762222
aI108172281
aI105753979
aI105937826
aI105821018
aI106354849
aI105844716
aI107213998
aI107656976
aI109925731
aI106254868
aI105733055
aI106078483
aI105741152
aI106178065
aI106148141
aI107342001
aI105933012
aI109286163
aI105752269
aI105798924
aI105761361
aI105968525
aI106611660
aI105717760
aI106001260
aI107164872
aI105762438
aI106010509
aI106547437
aI108077213
aI107324469
aI105981973
aI105828430
aI106279526
aI106065268
aI106510756
aI106679501
aI106420633
aI106523118
aI108933364
aI106197963
aI107791468
aI105789298
aI107823141
aI105755905
aI107050301
aI105722290
aI105954175
aI107596000
aI105751177
aI106418724
aI106765204
aI105799065
aI105755902
aI107766503
aI106509020
aI105932996
aI106190927
aI106244809
aI105741950
aI105762639
aI105849782
aI105749953
aI106919170
aI106678002
aI106085470
aI105877455
aI105715241
aI105885186
aI105935178
aI106287949
aI105899775
aI106798065
aI107183506
aI106867377
aI105740528
aI108360316
aI105732299
aI106070371
aI106464214
aI106032527
aI105970984
aI105736399
aI106002151
aI106882639
aI105715721
aI107135553
aI105725116
aI105733007
aI107282754
aI105757045
aI105926121
aI105880156
aI105763056
aI105957626
aI107647018
aI107767766
aI105988600
aI107246115
aI107185274
aI107665496
aI106050176
aI107178567
aI106190598
aI105793325
aI106089261
aI105981966
aI107655173
aI106853354
aI105897836
aI107285541
aI105807141
aI105732893
aI105981726
aI105957589
aI106407157
aI105740855
aI106579917
aI105801570
aI107303058
aI105790014
aI105968954
aI105859903
aI106023625
aI105753565
aI106028627
aI106038167
aI105750442
aI107164382
aI105753943
aI108381760
aI106010871
aI105721672
aI105874451
aI107186841
aI105973648
aI106337029
aI106025635
aI105753265
aI108612855
aI107217953
aI105957617
aI105851974
aI108850499
aI105751867
aI106106417
aI106582636
aI105970281
aI106246555
aI108235775
aI105760356
aI105721804
aI105724111
aI105860576
aI108197943
aI106241279
aI105722236
aI105887571
aI105752752
aI106930714
aI105751282
aI105715622
aI106467225
aI105747999
aI105761682
aI105734957
aI105886510
aI105739901
aI107235935
aI109305187
aI105864529
aI105740102
aI107179726
aI105870248
aI105867136
aI107384706
aI105740858
aI106007969
aI106995925
aI108339632
aI105740693
aI105764868
aI105748795
aI108045830
aI106171789
aI105724345
aI105975812
aI106022083
aI106080054
aI106538496
aI106038110
aI105760344
aI105922156
aI105752425
aI107653478
aI105979875
aI108244424
aI106590322
aI105957040
aI106182436
aI105721693
aI106171769
aI108326433
aI106546321
aI107089591
aI105973423
aI105882846
aI105818231
aI106930051
aI105748624
aI105854711
aI105765006
aI105823529
aI107821780
aI106793181
aI107239666
aI106013503
aI106589900
aI105718465
aI106597890
aI106418188
aI105718072
aI105933405
aI105755860
aI105837922
aI105761073
aI106435212
aI106286038
aI106182736
aI106956830
aI106539493
aI105722653
aI105734825
aI106129783
aI105868170
aI105722263
aI105981162
aI105717754
aI105762072
aI105754036
aI106759024
aI106129702
aI106001975
aI105718756
aI105748412
aI107313889
aI106305165
aI106807617
aI106660868
aI105724639
aI105813234
aI107693379
aI105870839
aI107073684
aI105872570
aI106787027
aI105791090
aI107261452
aI105753358
aI105725053
aI105739997
aI106538812
aI106033506
aI105812383
aI106268353
aI107338711
aI105879114
aI105942904
aI105762609
aI110479688
aI105880759
aI105846903
aI106164996
aI106158273
aI106554832
aI107852686
aI105741299
aI105753826
aI106893050
aI108082878
aI105789348
aI107318172
aI105754261
aI107256605
aI106074114
aI106343688
aI105891002
aI108253223
aI106020543
aI105988932
aI107738106
aI105874608
aI107326728
aI106046547
aI106136111
aI105877209
aI106177028
aI106386267
aI108825691
aI105997423
aI106064374
aI107220838
aI105753592
aI105741113
aI107783291
aI107739131
aI106069234
aI107178574
aI105916648
aI105759801
aI105758964
aI105751144
aI105949567
aI106002068
aI106625332
aI105958740
aI107286698
aI105714830
aI107084039
aI105956674
aI105755176
aI105869766
aI105878174
aI105906572
aI108039039
aI105764562
aI106447808
aI105732446
aI106033475
aI105920133
aI107205260
aI105899201
aI108344970
aI105722413
aI107550227
aI105877771
aI105721870
aI105732668
aI105762372
aI107694338
aI105858775
aI105740606
aI105862674
aI106784819
aI105724690
aI106224520
aI106261297
aI105717406
aI105757678
aI106234475
aI105795544
aI105751570
aI105864359
aI108195409
aI106712566
aI109095160
aI105896836
aI107025357
aI105828506
aI105917196
aI107062126
aI108191611
aI105763185
aI105722815
aI105741062
aI106745095
aI105926137
aI105752278
aI105763278
aI105740954
aI106567858
aI107776637
aI105799313
aI108320561
aI108315985
aI105740192
aI107263454
aI105755986
aI106176796
aI105755476
aI106145894
aI106782241
aI105829031
aI105948063
aI105806895
aI105822199
aI106759064
aI107303042
aI105920833
aI109399403
aI105970329
aI108347741
aI105724255
aI107133269
aI105732473
aI106290243
aI107097844
aI105754726
aI106170621
aI105718360
aI105721861
aI105990007
aI105754639
aI107591593
aI106192797
aI107813851
aI107551346
aI106014669
aI105948491
aI105762153
aI106145912
aI105848947
aI106185057
aI105753760
aI105740549
aI106020476
aI105740921
aI107636951
aI105717733
aI106303231
aI105753502
aI106766839
aI105753169
aI106007952
aI107408299
aI106177323
aI106276120
aI105715274
aI105864790
aI106169130
aI107585496
aI106024105
aI108411358
aI105789070
aI106425550
aI105763845
aI105876648
aI105963378
aI106003716
aI106730087
aI107304417
aI105763503
aI107591795
aI105740465
aI107112867
aI105899219
aI105934973
aI105951695
aI106074026
aI106786970
aI106078388
aI106543629
aI106585757
aI105763833
aI107179172
aI106009245
aI107170523
aI105800525
aI106863101
aI106049264
aI105862890
aI106311070
aI106154355
aI106089237
aI105740180
aI105758673
aI108312467
aI105862969
aI105843027
aI105932137
aI105991931
aI105752779
aI105815137
aI105892342
aI106992175
aI106881785
aI105750400
aI107574417
aI106737985
aI105752680
aI105724564
aI106191134
aI105970260
aI105878180
aI105900275
aI105972161
aI105948352
aI106653826
aI105880369
aI105858676
aI105732326
aI105757018
aI108303905
aI105724906
aI105740351
aI105958207
aI106787020
aI105755044
aI106668170
aI106583051
aI106384789
aI105748783
aI106034434
aI106285235
aI105995847
aI105828037
aI107496893
aI107629146
aI107619173
aI105715019
aI105717667
aI105980608
aI105806079
aI106615858
aI107814738
aI105751543
aI106551027
aI105722581
aI107965974
aI106141505
aI106887352
aI106517571
aI105748424
aI105955452
aI106002348
aI105723388
aI106601293
aI105725650
aI107283419
aI107141385
aI105741881
aI106206796
aI107569582
aI106887440
aI105734645
aI106060080
aI107822819
aI108326284
aI107933294
aI105938684
aI105956328
aI105822207
aI105756130
aI106300350
aI107110349
aI107544012
aI105741983
aI105875473
aI105816334
aI107531638
aI106730657
aI105978349
aI105748148
aI105724006
aI105752860
aI106414581
aI106153152
aI107874728
aI108145655
aI107203301
aI105763263
aI107641826
aI105715115
aI105756862
aI107244453
aI105759333
aI106653684
aI105949574
aI106158029
aI106059285
aI105795247
aI105759918
aI105966227
aI105714800
aI107116591
aI105799843
aI106545454
aI106887491
aI105741452
aI105764763
aI106577231
aI105764523
aI105842817
aI106010408
aI108928507
aI106329266
aI105755470
aI106242673
aI105917803
aI108299553
aI105724075
aI106032868
aI105949237
aI107276707
aI106721209
aI105949621
aI105948637
aI108074988
aI106582065
aI105717565
aI105754111
aI107073365
aI105796626
aI106139513
aI105954972
aI105862584
aI108401251
aI106451192
aI106078459
aI108309654
aI105752920
aI105793824
aI106103917
aI105724867
aI105799496
aI105984597
aI106279330
aI105887258
aI107479932
aI107786624
aI106552694
aI107556667
aI107815993
aI106334544
aI105754126
aI107120367
aI105759576
aI105910830
aI107608394
aI106519172
aI105801925
aI105761343
aI107327679
aI107229309
aI107772514
aI105748181
aI105938948
aI105741578
aI106670588
aI106904122
aI105905234
aI105764169
aI105878131
aI107182430
aI106840672
aI106136262
aI105915718
aI105876469
aI105990876
aI105990833
aI106309607
aI107612029
aI106997229
aI105921200
aI105733163
aI107216187
aI106013239
aI108299468
aI105760065
aI106517796
aI106286854
aI107755695
aI105750514
aI106453181
aI105749743
aI107640767
aI106689879
aI105924906
aI105839969
aI105750523
aI106822355
aI106088797
aI108344993
aI105740123
aI105757600
aI105722686
aI105882385
aI106567874
aI106678991
aI105789043
aI105875352
aI106335360
aI106749096
aI105972388
aI105753307
aI105915047
aI105883426
aI105803407
aI105761916
aI106919060
aI105842909
aI106505566
aI107201090
aI106400153
aI105758422
aI106820232
aI106608213
aI107196753
aI107818883
aI106264346
aI105721900
aI107135931
aI105718264
aI105958680
aI105962344
aI105789321
aI106206806
aI106207744
aI106567193
aI106487550
aI106685802
aI106435834
aI107046699
aI108143511
aI105754933
aI105753298
aI106260733
aI106934295
aI105829036
aI108251740
aI105725683
aI105762201
aI106533648
aI105889905
aI106575471
aI105962104
aI105804319
aI105755665
aI107379980
aI105722605
aI106314254
aI106211767
aI105750955
aI107132538
aI106511486
aI105724786
aI105759219
aI106686058
aI107234047
aI105908771
aI105863211
aI107605707
aI106358132
aI107790537
aI105741638
aI105715025
aI107527732
aI107828850
aI107200833
aI107202898
aI106345241
aI106020359
aI106173601
aI105741518
aI106589563
aI107721354
aI105717769
aI106608342
aI107165465
aI107540672
aI108069896
aI105921731
aI105877444
aI106731726
aI107528638
aI107262980
aI107121962
aI105868994
aI105898985
aI106920635
aI107789030
aI105718321
aI105961427
aI107824147
aI105740993
aI108244256
aI106366289
aI107776130
aI105905246
aI105733154
aI105715694
aI105732395
aI105749242
aI106869037
aI105907577
aI105741491
aI106392790
aI107187962
aI107291074
aI105754543
aI105752986
aI107921969
aI106869609
aI107278214
aI106229396
aI105820354
aI106063798
aI105945919
aI105753316
aI105847669
aI106331446
aI105715451
aI106243836
aI105911895
aI105815363
aI105827735
aI105725026
aI105801790
aI107302733
aI108398621
aI105947133
aI106380780
aI105735719
aI106280353
aI108645719
aI105756586
aI108217945
aI107137163
aI106083614
aI106034782
aI107179167
aI105981715
aI105947883
aI105957067
aI106554766
aI105722575
aI105752230
aI106494144
aI105971474
aI107007720
aI105761544
aI105759687
aI107595867
aI108282163
aI105752692
aI105761547
aI106452787
aI105752629
aI106588480
aI105717589
aI105764007
aI106677976
aI106066640
aI106011585
aI106780362
aI105754147
aI106054430
aI105945903
aI105952381
aI106052910
aI107128165
aI105845642
aI109481319
aI106053437
aI109480361
aI105753202
aI105906941
aI105802059
aI105741305
aI107609134
aI106509842
aI105872660
aI106608140
aI105902040
aI105754711
aI106085157
aI106848943
aI105715397
aI106055575
aI105858664
aI107111297
aI105819735
aI108189604
aI106523698
aI106757203
aI106145798
aI106927403
aI105754801
aI106036927
aI105857546
aI106148478
aI105762408
aI106300140
aI105838042
aI105812690
aI106020515
aI105928964
aI105734720
aI110140396
aI106018089
aI107914182
aI107612121
aI105721858
aI105750676
aI108256301
aI105725260
aI105989640
aI105923587
aI105815337
aI106842580
aI107960352
aI105957074
aI107235387
aI106134457
aI106178510
aI106009274
aI105718456
aI106386419
aI105870903
aI105734615
aI105722098
aI106126236
aI106081063
aI105991212
aI105752296
aI106468186
aI105718123
aI106842568
aI108931525
aI106730137
aI108563892
aI105715742
aI107873758
aI105752776
aI105952296
aI106286045
aI105970601
aI105841378
aI107055911
aI105758856
aI105732245
aI106021968
aI105759681
aI106709517
aI107359044
aI107730856
aI107951207
aI105824424
aI105937358
aI105724486
aI106816391
aI105734612
aI106543907
aI105814427
aI106401332
aI106417258
aI105920916
aI105804246
aI105860711
aI105753658
aI105758931
aI107070421
aI106427956
aI105990019
aI105839901
aI106024720
aI108282149
aI108563805
aI106589110
aI107213171
aI105734681
aI106718692
aI105939158
aI106721305
aI105721783
aI105749932
aI105857749
aI105872056
aI108246080
aI108172312
aI105748187
aI106183827
aI105734624
aI106001290
aI105868726
aI105826098
aI106861093
aI105752716
aI105961980
aI106841202
aI105951717
aI105722494
aI107844106
aI106207680
aI107572942
aI105906994
aI106467636
aI105842913
aI105838614
aI105862110
aI107090599
aI106281169
aI105870860
aI106263209
aI106527486
aI105763725
aI105829266
aI105890675
aI106178054
aI106204597
aI105808527
aI107057624
aI106455468
aI105751672
aI105751171
aI106138337
aI105819937
aI105855720
aI105925163
aI106560941
aI106511488
aI105732488
aI106632041
aI107680376
aI106101992
aI105724945
aI105741443
aI106020821
aI105877366
aI107704336
aI106495360
aI105865056
aI107122332
aI105887353
aI106177930
aI105883338
aI105825469
aI107302765
aI106279475
aI105722353
aI106519447
aI105741860
aI106705016
aI105725641
aI105835526
aI105870235
aI105903295
aI105811574
aI107414229
aI107773352
aI108209046
aI106243220
aI106381836
aI107124345
aI105724336
aI105822918
aI106170571
aI108141876
aI105811851
aI106164020
aI106744090
aI107193997
aI105756568
aI106505559
aI105970002
aI105925175
aI105718699
aI107201641
aI105911858
aI105734960
aI106556443
aI106578709
aI106017653
aI106575856
aI107732291
aI105754150
aI105714821
aI105812654
aI105958050
aI108911085
aI105805917
aI105722794
aI105751807
aI105876765
aI107627509
aI106843423
aI105724261
aI109607912
aI106259786
aI105859125
aI106478626
aI106137166
aI105860755
aI105806568
aI105752518
aI106441367
aI105896725
aI105759597
aI106948350
aI106526864
aI105739904
aI105754708
aI107106274
aI105961577
aI106702543
aI106003153
aI105758578
aI105750772
aI105734618
aI106555935
aI107077795
aI105750751
aI106078477
aI106204401
aI106081909
aI105799676
aI105999761
aI107828963
aI106934266
aI107606540
aI106904386
aI108842420
aI108174029
aI105740114
aI106541967
aI105725197
aI105748885
aI106336750
aI109828396
aI105724924
aI105725332
aI108045816
aI106271493
aI105913047
aI105756574
aI106092527
aI106141573
aI106113553
aI105996582
aI105721651
aI105757219
aI106085719
aI105741503
aI105841766
aI107694110
aI105925169
aI105858455
aI105740546
aI107219400
aI105753928
aI105741002
aI106580234
aI106463684
aI105734660
aI105718003
aI106846471
aI106590990
aI105741098
aI105947026
aI106283004
aI105962502
aI105717541
aI106569088
aI105753145
aI105763077
aI107238940
aI106600925
aI105722335
aI105725878
aI106020558
aI105765036
aI107618376
aI106289000
aI105717409
aI106515742
aI105740537
aI105733121
aI107677843
aI107254704
aI106391407
aI105732470
aI105888855
aI108010466
aI105961516
aI105874278
aI106519144
aI106191555
aI105958958
aI106154042
aI105751861
aI105762939
aI106718790
aI105741746
aI106255084
aI106278183
aI105946477
aI106487057
aI105922314
aI105880172
aI105759765
aI105754528
aI106553886
aI105752992
aI107153991
aI106959471
aI105918391
aI106403137
aI107573005
aI106485976
aI106930963
aI105789169
aI107587109
aI106483991
aI105917907
aI107630296
aI105741650
aI106194664
aI105756349
aI107640368
aI107649866
aI106138074
aI106945277
aI107669247
aI105755188
aI105956683
aI107302512
aI105985747
aI105906426
aI105897802
aI105877233
aI105948632
aI107959357
aI108145859
aI105904768
aI105870876
aI106919295
aI105756280
aI105714911
aI107263245
aI105732824
aI105732563
aI107769926
aI105758623
aI105732338
aI105748427
aI105956715
aI107048931
aI105753364
aI106304344
aI106904517
aI105722464
aI105725275
aI106526868
aI105995798
aI106381034
aI105742181
aI105722779
aI106030855
aI105740762
aI105831778
aI105758443
aI105761100
aI105824824
aI105740288
aI106564960
aI105880996
aI106805241
aI107198282
aI106720518
aI106585375
aI106578795
aI105740039
aI105819744
aI105986255
aI105748912
aI106187204
aI105837872
aI106129223
aI107743325
aI107873752
aI105788558
aI105827358
aI106110630
aI106648423
aI106199475
aI105983941
aI105750679
aI105929815
aI105754897
aI107816567
aI106448169
aI105754819
aI107104796
aI106334831
aI105851631
aI106001521
aI105740207
aI106351829
aI106159945
aI108127794
aI107015770
aI107756460
aI105722776
aI105740543
aI107307170
aI106079947
aI106390917
aI105801793
aI105807732
aI105732887
aI105748478
aI105754213
aI108182263
aI105860747
aI107151163
aI105741215
aI106787040
aI105762612
aI105855555
aI105984368
aI108326305
aI105921711
aI105761148
aI106551619
aI107611875
aI106401359
aI105876979
aI106721107
aI105967825
aI108116209
aI105912503
aI105750943
aI105724402
aI105888584
aI105865766
aI108650217
aI106932478
aI106717013
aI105909584
aI107286349
aI105889139
aI108169496
aI106108831
aI105941480
aI106272501
aI105740711
aI105995843
aI106428241
aI106178084
aI107290942
aI106869006
aI106920490
aI105841798
aI106317991
aI106492051
aI105883373
aI106025462
aI106878952
aI106225765
aI105915712
aI107822840
aI105741464
aI105815088
aI106147074
aI105755713
aI105798204
aI106713086
aI106532940
aI108244936
aI105790187
aI105718126
aI105956335
aI106162360
aI105759108
aI106999446
aI108052987
aI105722176
aI107323013
aI105741731
aI105748376
aI105732740
aI106020957
aI106530769
aI108255797
aI105763737
aI105748289
aI105793801
aI105792553
aI105756982
aI106094774
aI106831219
aI105887144
aI106799818
aI106021168
aI106263216
aI105735191
aI106278881
aI106382718
aI106509913
aI106515299
aI106990686
aI107561152
aI105724777
aI105846554
aI105752944
aI107064159
aI107132484
aI105760317
aI105750019
aI106064911
aI105732728
aI106229599
aI106600242
aI105877262
aI106607290
aI105761157
aI105759315
aI105818957
aI105824463
aI105996576
aI107367991
aI105970612
aI106020370
aI105819767
aI105920044
aI106469474
aI105740489
aI106775995
aI106032518
aI106126911
aI107720422
aI106197646
aI105754264
aI105752455
aI105915955
aI105721921
aI107774561
aI105870665
aI107129129
aI107121323
aI105836099
aI107110081
aI105910920
aI105896665
aI106020311
aI105920183
aI107840901
aI105930183
aI106303899
aI105966691
aI107219245
aI106498999
aI106184000
aI106681336
aI105759408
aI105823218
aI105740198
aI105793329
aI107114058
aI105863234
aI107860443
aI105908910
aI106091432
aI107564707
aI106175168
aI106430880
aI105762681
aI106782154
aI105717481
aI105761403
aI105910942
aI109346860
aI108831064
aI105754087
aI106490427
aI105764214
aI105794884
aI105946055
aI105723664
aI105741644
aI105953648
aI106193308
aI105732743
aI106863272
aI105761268
aI105758335
aI106445447
aI107183558
aI106085515
aI106679643
aI107588465
aI105847471
aI107116416
aI106892183
aI105922522
aI105732638
aI106495528
aI106197783
aI106489859
aI107071109
aI105723472
aI105715724
aI106580254
aI105893242
aI105753676
aI107000549
aI106791268
aI107536885
aI105880926
aI106579497
aI106121898
aI106575798
aI105888734
aI105756106
aI105756394
aI105758925
aI106924663
aI105896036
aI105758161
aI106181543
aI105723712
aI109868751
aI106618148
aI106897660
aI106178023
aI106819104
aI105751828
aI106636894
aI105724669
aI105763635
aI105722548
aI105756442
aI106239730
aI107327343
aI106174101
aI106590813
aI106479453
aI105717355
aI105793729
aI106283689
aI106416669
aI105723442
aI106052846
aI107622556
aI107896340
aI105857638
aI106362583
aI106044952
aI106286054
aI107683393
aI105752083
aI105734567
aI105926085
aI105790600
aI105827659
aI105752881
aI107234553
aI105947953
aI105811994
aI106020326
aI105760224
aI106441340
aI106225778
aI105717898
aI106820788
aI105896825
aI105847203
aI105872442
aI107268090
aI105751435
aI107652220
aI106018717
aI105866006
aI105740042
aI105741725
aI107144872
aI108206018
aI106107193
aI105764052
aI105722617
aI105741176
aI105761898
aI106454727
aI105759804
aI105722638
aI105724561
aI105970359
aI105748096
aI106754154
aI105741656
aI105962396
aI107276829
aI107160277
aI105798597
aI106516267
aI105889511
aI107739776
aI105752983
aI105721822
aI107606649
aI107298937
aI105818904
aI107874682
aI106550572
aI105880953
aI106361665
aI106232452
aI105897715
aI106001906
aI108153454
aI105758961
aI106589684
aI105732569
aI105921650
aI107755206
aI105718444
aI105721681
aI105721891
aI107134388
aI106211747
aI105758886
aI107964752
aI107772597
aI107959348
aI106003187
aI105715109
aI106869053
aI107896330
aI105752422
aI108246086
aI106515771
aI106069654
aI105793317
aI105896636
aI105742145
aI107205840
aI105954921
aI105899731
aI106034638
aI106467684
aI105742085
aI106109062
aI105740633
aI107215714
aI105871970
aI105944102
aI106177301
aI106598936
aI105740579
aI106336738
aI106774631
aI106372562
aI105947793
aI105985455
aI105808027
aI106427845
aI105816757
aI106284793
aI105869231
aI105833803
aI106494384
aI107110573
aI105820960
aI108306490
aI105718330
aI106805285
aI108077894
aI105752875
aI106166617
aI105815932
aI105724933
aI105755041
aI105854135
aI105749926
aI105752899
aI105902187
aI106503675
aI105795525
aI105741398
aI106203075
aI106762052
aI106190776
aI105717607
aI105839153
aI105717574
aI106010417
aI105868747
aI107802831
aI106292501
aI106713107
aI105763461
aI105755857
aI105761295
aI107639451
aI107095337
aI106789820
aI105717427
aI106466032
aI105739934
aI109399382
aI108135430
aI106571843
aI107283409
aI106001206
aI107191068
aI105725083
aI106819285
aI106302420
aI105740924
aI105956236
aI106021819
aI105725131
aI106317879
aI106118679
aI106512297
aI106295842
aI106819114
aI106492220
aI107755911
aI106051003
aI105889858
aI105917970
aI105758077
aI106543029
aI106403110
aI105753853
aI105717598
aI105848588
aI107784197
aI105857208
aI105763014
aI105755668
aI105759030
aI107906862
aI105725236
aI105979094
aI105989625
aI106576940
aI105753670
aI105759750
aI106868873
aI107758255
aI105919570
aI106517496
aI105928207
aI108126846
aI107752350
aI105756529
aI106277243
aI106088243
aI105870321
aI105714767
aI105723547
aI106029331
aI105881876
aI106002952
aI105751666
aI106371703
aI105740534
aI105948669
aI106925383
aI105925036
aI106589851
aI106032904
aI105756931
aI105750424
aI105977683
aI105892936
aI105913906
aI105764658
aI106399673
aI106923798
aI106465041
aI106595011
aI106389644
aI105920872
aI106353365
aI106387242
aI105759879
aI106506126
aI105794030
aI105906022
aI106937723
aI106703738
aI106174421
aI105732713
aI105913043
aI106431105
aI107737181
aI105740327
aI105752305
aI106269832
aI107847284
aI105889552
aI105741425
aI105853724
aI108314873
aI105989451
aI106128246
aI105891833
aI107118108
aI106137809
aI108564722
aI106176142
aI105721687
aI107692883
aI107727184
aI105838569
aI105822133
aI106731023
aI105717535
aI105996567
aI105732254
aI105718075
aI106660595
aI105941845
aI105961405
aI105819223
aI106209769
aI108538316
aI105721627
aI106478790
aI105725185
aI106668111
aI106185052
aI106680881
aI105753622
aI105866366
aI105761499
aI105752287
aI106570144
aI105721837
aI106083200
aI106686067
aI106737435
aI105998473
aI105973431
aI106732678
aI107515564
aI106129209
aI105757234
aI105752122
aI106221466
aI106594953
aI106499845
aI106026975
aI106242815
aI107290449
aI105714842
aI106955045
aI105849995
aI106448163
aI106312281
aI107758206
aI105718693
aI106959166
aI105915111
aI105764874
aI106925375
aI106300403
aI108172616
aI106060936
aI105764568
aI108121451
aI105761397
aI107089296
aI105752116
aI105827371
aI106312392
aI106315517
aI106185090
aI106018662
aI105957287
aI106020349
aI105732854
aI108326311
aI105732434
aI105761250
aI105954036
aI108454104
aI105761433
aI106559255
aI106804904
aI108126174
aI106381678
aI105717532
aI105754549
aI105964688
aI107835392
aI105723598
aI108326370
aI105741872
aI106589838
aI105762765
aI109140587
aI106054748
aI106413531
aI106518121
aI105756112
aI105969736
aI105948528
aI105832420
aI105914577
aI106411334
aI107690646
aI105722026
aI105750730
aI105983435
aI105748942
aI108237079
aI106580314
aI107516399
aI106783673
aI105741521
aI106519148
aI107116440
aI105896223
aI106164135
aI105945205
aI106513445
aI105931527
aI106775797
aI108831115
aI105723448
aI106526823
aI106011882
aI105794275
aI106130298
aI105725272
aI105820832
aI105882606
aI105732656
aI106770322
aI105966517
aI107073336
aI105989381
aI106037501
aI106830878
aI106458215
aI107246890
aI106582654
aI105874750
aI105946072
aI105748382
aI107395148
aI106198365
aI105889540
aI105722668
aI105869357
aI105717352
aI105740096
aI105961435
aI107930809
aI107203314
aI107011310
aI105754774
aI106001940
aI107289456
aI106605458
aI106071441
aI106003159
aI106021944
aI105978386
aI106585384
aI105818787
aI106920622
aI105925756
aI105736402
aI108255583
aI107816210
aI105933421
aI105947976
aI106835484
aI106022859
aI105753106
aI108935030
aI106409719
aI107618906
aI105740099
aI106368738
aI107292240
aI107278622
aI109610597
aI105741110
aI106007588
aI105721885
aI106517680
aI106076229
aI105762984
aI106009915
aI107183057
aI105855411
aI105753685
aI106668132
aI106571193
aI105879165
aI105870718
aI107618877
aI106544738
aI105974638
aI105989617
aI106156898
aI106133879
aI105715148
aI109610231
aI106067931
aI107169409
aI108299701
aI108228989
aI105869873
aI105920932
aI106543023
aI105902378
aI105718297
aI106737928
aI106807582
aI107200296
aI106015666
aI105735548
aI106170451
aI106518812
aI105741596
aI107048879
aI107203231
aI105749731
aI105809848
aI106142995
aI106017548
aI105724195
aI107282800
aI106428154
aI105856973
aI106467605
aI107776676
aI107408079
aI105750997
aI105732857
aI105749980
aI105756946
aI106982510
aI105755779
aI105732320
aI105898015
aI105763356
aI107808135
aI106026204
aI106812614
aI106752411
aI106295750
aI105756103
aI105805980
aI106072240
aI106447493
aI105752074
aI106088344
aI105754042
aI107247421
aI106589449
aI106194840
aI107219282
aI105758922
aI105749842
aI109930142
aI105723910
aI106255818
aI105725431
aI105839882
aI107693776
aI106417374
aI106043868
aI105753706
aI107180147
aI106416534
aI105855434
aI108072015
aI105733169
aI105715028
aI105714884
aI105748511
aI107819027
aI105758296
aI105722716
aI105732722
aI106011864
aI107719405
aI105953279
aI106566444
aI105841688
aI107556658
aI106800412
aI105723643
aI105844745
aI105891685
aI106361834
aI106226876
aI105715583
aI106386277
aI107151152
aI106727680
aI105761688
aI105815862
aI106500980
aI106892365
aI105748807
aI105751180
aI105826075
aI106261946
aI107204916
aI105884378
aI106523769
aI105718105
aI106201844
aI107118805
aI106067877
aI106135320
aI105808906
aI105756556
aI105756925
aI105715565
aI105830394
aI106674883
aI106805054
aI105753601
aI105723109
aI105988957
aI106129074
aI105741623
aI105724189
aI106480421
aI105732839
aI105752893
aI107530038
aI108198051
aI105723430
aI107265385
aI106680362
aI105721888
aI105837747
aI105838585
aI105761697
aI105753511
aI105740669
aI105941458
aI106265285
aI105942177
aI105764829
aI106852654
aI105795818
aI107661472
aI107722747
aI108100067
aI105859894
aI105931711
aI107445089
aI106874181
aI105732545
aI105759444
aI106424800
aI107683096
aI107821326
aI105870649
aI106817486
aI106945490
aI106928957
aI105722356
aI106234853
aI106673959
aI106159297
aI107130341
aI105717796
aI105736175
aI105934896
aI105751165
aI109429122
aI105862459
aI105732587
aI105866599
aI106279460
aI107073425
aI105752563
aI105752713
aI106678804
aI106809662
aI106590879
aI105714731
aI105915991
aI107153195
aI105715091
aI107325991
aI105761385
aI106306126
aI105732467
aI105835376
aI105717544
aI105878091
aI106640673
aI107408071
aI105989185
aI105897570
aI105962600
aI105753922
aI105717730
aI106710731
aI105885089
aI107678593
aI107690735
aI105991234
aI105835384
aI105761649
aI106625464
aI105761604
aI107192123
aI110457319
aI105859205
aI105740117
aI106842549
aI105724198
aI107690664
aI105717577
aI106599268
aI105752350
aI105925309
aI106129846
aI106251354
aI106583471
aI107104918
aI106252655
aI106381743
aI105842934
aI106232466
aI105734579
aI106327989
aI105717601
aI106222444
aI105891553
aI105717517
aI107477781
aI105750049
aI105761388
aI105976912
aI105742166
aI105841382
aI105790633
aI108134174
aI106549384
aI108301590
aI108162025
aI105734864
aI106193849
aI105880857
aI107754871
aI106385941
aI105748439
aI105947972
aI108202107
aI105715058
aI106034988
aI106278440
aI105748454
aI108134263
aI105846537
aI105922177
aI105806583
aI105739886
aI105876579
aI105993528
aI106575756
aI105732959
aI105793942
aI105825209
aI105725887
aI105734735
aI107152673
aI105753373
aI106499752
aI106807375
aI106789618
aI107694619
aI105880631
aI105741617
aI107694918
aI105748867
aI105752941
aI105958335
aI106055069
aI105725764
aI107616232
aI105741593
aI105911822
aI105764172
aI105752272
aI106149918
aI108301541
aI105820350
aI106292464
aI106146083
aI108191624
aI107080916
aI106702996
aI108366784
aI106702485
aI105734609
aI105722647
aI106691692
aI105914186
aI106075960
aI106129085
aI105725317
aI107722739
aI106182843
aI106556331
aI107224616
aI105756373
aI105732923
aI107055281
aI105867536
aI106789800
aI105732629
aI106036922
aI105714929
aI105733181
aI106263498
aI105723346
aI105732941
aI106207322
aI107429493
aI106919039
aI105762936
aI105925508
aI106200378
aI108322064
aI106333406
aI106513072
aI105990027
aI107070352
aI105718336
aI106020011
aI107106797
aI105927124
aI105749578
aI106579687
aI105867266
aI107640216
aI105888985
aI107611862
aI107070313
aI105945642
aI106502575
aI105752086
aI106997978
aI106254635
aI106875514
aI105816764
aI105721714
aI105740996
aI107431251
aI109045434
aI106110532
aI107600258
aI107367986
aI105752413
aI105732755
aI106131303
aI106058603
aI105759459
aI105869028
aI106070768
aI106091425
aI105759510
aI106073099
aI105758332
aI106537679
aI106862754
aI105751498
aI107283446
aI105820358
aI105732542
aI105754162
aI106849475
aI107674461
aI107325407
aI105722200
aI105725014
aI105732770
aI107289422
aI106653590
aI105715730
aI107074162
aI106571834
aI105762030
aI105955755
aI105763467
aI107301882
aI105913755
aI105757432
aI105755263
aI106727537
aI105942411
aI105748364
aI105867724
aI105759636
aI105763011
aI107110679
aI107207121
aI105844209
aI106547455
aI106293421
aI105740000
aI105721678
aI105714758
aI105850197
aI106317259
aI105723733
aI105748163
aI107758295
aI105721912
aI105811938
aI107135475
aI106776797
aI105717454
aI108263566
aI105715103
aI107070300
aI106402035
aI105717997
aI106937689
aI106177974
aI105756046
aI105721825
aI107123084
aI105820181
aI105718459
aI107304433
aI108067391
aI108398190
aI106454513
aI107105422
aI106088271
aI107723848
aI106506422
aI105973049
aI108178445
aI105981198
aI105892190
aI105877763
aI106281135
aI105722194
aI105854288
aI105750460
aI106025917
aI105816725
aI105717472
aI106131704
aI107795828
aI106056211
aI108077200
aI106445731
aI105740735
aI105849567
aI106165012
aI106594004
aI105751204
aI105878887
aI106325768
aI105862489
aI105718474
aI106811945
aI106043934
aI105723316
aI105757516
aI107098593
aI105732689
aI105850549
aI105764634
aI107186151
aI105833808
aI107564752
aI106058630
aI108055082
aI107268197
aI107758923
aI106601406
aI105717556
aI105755299
aI107666939
aI106073466
aI105752227
aI106099467
aI105721873
aI105913902
aI105942397
aI106592325
aI106151016
aI105725194
aI105717424
aI107111230
aI106065890
aI106177423
aI105830370
aI105734954
aI107659215
aI106087869
aI107324923
aI105741956
aI105758110
aI106059019
aI105762618
aI105916494
aI109223440
aI108649922
aI106496009
aI105787765
aI105864806
aI110324481
aI106060626
aI105752149
aI106811821
aI106055041
aI106229378
aI106018649
aI106019649
aI105753397
aI110018840
aI107367973
aI105715469
aI105977711
aI105841739
aI106517457
aI106279516
aI107860419
aI105989478
aI105874590
aI106583753
aI106308782
aI105971326
aI107629709
aI105756565
aI105740255
aI106582972
aI106575842
aI106010504
aI106491820
aI105862957
aI106999958
aI107110111
aI106158041
aI107067325
aI105741599
aI106910746
aI105906887
aI105998254
aI106473897
aI106711001
aI105981443
aI105945889
aI108145878
aI106178522
aI105752728
aI105840280
aI106371769
aI105756865
aI105926283
aI107304762
aI106665806
aI107311834
aI105910131
aI105827667
aI105993595
aI105961848
aI105986204
aI107447515
aI105740429
aI105758431
aI107229970
aI106207225
aI107110067
aI108725080
aI106834750
aI105763527
aI106804391
aI106081566
aI105909202
aI107550295
aI106598920
aI105870271
aI105804922
aI105722917
aI105748274
aI105993307
aI108068520
aI106175960
aI105762771
aI105859308
aI105741851
aI106032393
aI105749989
aI107810730
aI105947835
aI106863214
aI106083506
aI106593471
aI106416705
aI106885779
aI105843066
aI106398462
aI105865761
aI105975221
aI105827410
aI105813469
aI106716946
aI105759690
aI106884751
aI107318105
aI106819561
aI106321691
aI105793703
aI107199345
aI105957789
aI106300123
aI106329321
aI105763947
aI105740675
aI106069664
aI105740672
aI106553555
aI106517469
aI106889468
aI106085035
aI106025023
aI105957130
aI106712011
aI106293592
aI106029327
aI106923337
aI106134067
aI107247470
aI106302260
aI108301090
aI107111306
aI105935097
aI105762327
aI106369238
aI105748193
aI105764361
aI108170867
aI105756949
aI105717700
aI105792983
aI106427163
aI105939440
aI106292493
aI105754963
aI107776662
aI105980650
aI106089084
aI105956350
aI108226567
aI106076184
aI106112202
aI107729157
aI105758934
aI107652276
aI105717652
aI106242003
aI106804235
aI105723358
aI105988945
aI107884575
aI107807510
aI105758404
aI105966723
aI106011068
aI106244272
aI105962938
aI105958415
aI105739916
aI107221223
aI105718621
aI106479918
aI107859984
aI105722587
aI105765042
aI105733058
aI105756358
aI105988273
aI105834111
aI107263221
aI105851891
aI105760398
aI106020166
aI105721864
aI105751705
aI105748472
aI105969818
aI107298333
aI105962577
aI106153895
aI106459159
aI107652256
aI106301998
aI106034970
aI105751699
aI106795412
aI107641438
aI107088721
aI105821090
aI107282255
aI106663898
aI105760656
aI105990390
aI106478452
aI105841257
aI107730934
aI105868264
aI106820213
aI105827679
aI107643164
aI107659002
aI105732374
aI108766319
aI105748987
aI107776277
aI105748630
aI108194885
aI105964137
aI106393572
aI106684297
aI105760794
aI106613481
aI107529268
aI105721630
aI106047271
aI105715712
aI107019420
aI105945948
aI105725515
aI106213673
aI106772331
aI106107651
aI105868232
aI106798823
aI106519072
aI108199822
aI106034975
aI105721777
aI105908757
aI105725350
aI105740081
aI105989837
aI107499162
aI106417544
aI106058997
aI105751405
aI105749296
aI107221659
aI106511520
aI106150481
aI105862915
aI105912513
aI106773955
aI105883394
aI105717661
aI105814941
aI106000302
aI107884596
aI105866339
aI106721175
aI106288082
aI107611346
aI107682572
aI105741488
aI106473699
aI106270871
aI106000171
aI106304964
aI106026407
aI106029865
aI109590615
aI105732710
aI106941388
aI105850082
aI105820366
aI105945195
aI105872896
aI105926078
aI105714773
aI105863000
aI106869149
aI106181785
aI105757279
aI105799077
aI107705217
aI105754171
aI106017758
aI106651372
aI105793715
aI107253323
aI105715247
aI107198195
aI106555418
aI105752419
aI105979760
aI106177414
aI107878066
aI105954561
aI106006911
aI105753286
aI105757699
aI105991355
aI105917376
aI106478115
aI108695777
aI106488535
aI106074433
aI107070279
aI105749824
aI107527794
aI107664177
aI106445761
aI106444971
aI107758297
aI105761370
aI105718438
aI107572973
aI105816324
aI105791931
aI107239645
aI105988881
aI105749893
aI105939427
aI105732692
aI106570017
aI106465652
aI106999932
aI105856167
aI107110131
aI106958928
aI105718114
aI106427153
aI105752632
aI105732539
aI106276149
aI105799572
aI105984940
aI105979750
aI105724513
aI106083470
aI105991206
aI105714962
aI106123263
aI105860654
aI105761115
aI106129854
aI105714818
aI106583062
aI105879899
aI105883765
aI106234777
aI107564691
aI105715400
aI105764781
aI105987849
aI106607648
aI108141858
aI105938259
aI105969652
aI107830976
aI106281218
aI105752209
aI105909580
aI105937169
aI107151178
aI105764280
aI107652242
aI105735071
aI106725290
aI105740771
aI105750739
aI106679612
aI105722221
aI105789917
aI107320343
aI105732716
aI108117615
aI105757246
aI105763785
aI105829092
aI105841386
aI107145017
aI106444608
aI105736076
aI105739937
aI105833248
aI105756121
aI108072051
aI105910536
aI105721720
aI107262949
aI106589426
aI105884594
aI105761298
aI105809405
aI107561830
aI106937642
aI105975225
aI105887376
aI106713115
aI106966837
aI105764652
aI105748023
aI105752323
aI105966234
aI106139522
aI107087801
aI106992729
aI106020404
aI106265245
aI106871886
aI105853405
aI105718528
aI106065305
aI105818164
aI105840022
aI105718813
aI107190755
aI106029815
aI105838058
aI108597033
aI107719927
aI105755617
aI107778843
aI105977675
aI106640657
aI107411802
aI107633468
aI106012914
aI106279471
aI106502830
aI106437310
aI105956048
aI106829965
aI105718273
aI106995932
aI106074786
aI105753310
aI105793960
aI106334928
aI105718396
aI105717826
aI107048902
aI105970537
aI106590292
aI105828990
aI107726777
aI105893726
aI106302449
aI107075003
aI106012937
aI105759762
aI105863118
aI106500976
aI106562620
aI105752896
aI105754750
aI106289012
aI105899209
aI106036805
aI105748175
aI107305814
aI105717643
aI106600745
aI106959155
aI105714737
aI106485521
aI107707326
aI105889893
aI105761643
aI105841773
aI106606208
aI106228532
aI106378880
aI106377970
aI105911379
aI106657244
aI108135529
aI108186677
aI105740747
aI107799177
aI105755251
aI108057078
aI105740576
aI106304082
aI106085523
aI105741548
aI107120893
aI106513977
aI106792383
aI106200078
aI106157943
aI106241885
aI105758913
aI106578519
aI107098017
aI105714860
aI105874700
aI105753547
aI107037493
aI106456404
aI108056569
aI106980580
aI105865662
aI105735608
aI105751906
aI106679354
aI107547636
aI105980265
aI105916072
aI107755425
aI105915034
aI106880171
aI105855743
aI106003090
aI106492432
aI106317006
aI105740225
aI105722395
aI106494945
aI107653060
aI105948333
aI106129059
aI107142487
aI106411525
aI107400560
aI106397338
aI105714719
aI105749740
aI106133959
aI107141720
aI105717514
aI107260996
aI107781447
aI106937702
aI105751324
aI106018126
aI105893281
aI105852406
aI108089716
aI105798882
aI105740879
aI105874659
aI105973968
aI105805805
aI105749896
aI106526827
aI106848945
aI105715754
aI105751849
aI107225122
aI107183564
aI106314309
aI105859282
aI106162453
aI105840037
aI105846013
aI106581192
aI105856788
aI106148500
aI105724978
aI105910456
aI105732944
aI107839661
aI108541574
aI108253840
aI105740942
aI107680476
aI106294662
aI105858437
aI105735611
aI106575765
aI105723787
aI106022756
aI105717658
aI105748223
aI106765885
aI105756544
aI106134077
aI105902602
aI105754900
aI105749866
aI108134332
aI105829989
aI106442110
aI106025648
aI106331977
aI105977181
aI105740210
aI108233279
aI105868713
aI105798431
aI106738518
aI109000721
aI106532721
aI105736019
aI107641513
aI105813238
aI105748508
aI106980563
aI106314290
aI105732890
aI107775577
aI105740894
aI105756757
aI105845174
aI106355526
aI105950719
aI107723808
aI106011590
aI106177922
aI105891922
aI105920128
aI106928020
aI105741893
aI106261746
aI105813555
aI105975139
aI106089957
aI105919971
aI105725167
aI105754219
aI106102678
aI106340312
aI107186623
aI108417155
aI105722239
aI105717547
aI106442838
aI107385652
aI106544576
aI108286209
aI105902745
aI106341097
aI107621883
aI105753295
aI105758011
aI105790262
aI106904324
aI105926957
aI107133606
aI108293441
aI105751018
aI107209369
aI105750949
aI105835093
aI105740795
aI105763125
aI106872625
aI106181254
aI106431365
aI105741011
aI107592519
aI105902594
aI105765111
aI107755242
aI106029361
aI108301605
aI106240425
aI108222308
aI106587794
aI107652155
aI105732290
aI105949670
aI106876316
aI105715406
aI105721978
aI106463621
aI107793208
aI107263553
aI105993518
aI105723502
aI107652306
aI107636432
aI105755194
aI107070097
aI106029027
aI106712700
aI105758545
aI106185518
aI108198020
aI107283574
aI106807592
aI106512677
aI107630107
aI105753667
aI106617611
aI105795238
aI106181771
aI105722074
aI105903854
aI105725047
aI106002079
aI105739940
aI105765117
aI107621868
aI105732815
aI106001020
aI106497070
aI106641263
aI106080153
aI105862530
aI105740585
aI105802229
aI105902066
aI105878341
aI106532545
aI106533164
aI105715169
aI105753481
aI105803112
aI106424477
aI105910451
aI105725416
aI106061920
aI106007005
aI105809717
aI107097914
aI106471617
aI105734654
aI107559211
aI106575837
aI106339705
aI107242349
aI105721636
aI106312374
aI109586856
aI105800687
aI106481514
aI105910235
aI106311211
aI105828033
aI106588157
aI106282978
aI105760476
aI105790350
aI106281558
aI106029002
aI105925348
aI105722851
aI107983200
aI105811595
aI106440087
aI105948641
aI106216359
aI105933013
aI107863713
aI106062289
aI106079993
aI105741404
aI105905294
aI105749983
aI105911032
aI106411946
aI106441233
aI105717757
aI107525875
aI106029842
aI107970002
aI105740936
aI106216462
aI106691566
aI107711508
aI105722860
aI105760680
aI105742004
aI105724972
aI105732461
aI106020335
aI105717469
aI105750976
aI106497956
aI107273805
aI105917766
aI105869491
aI105718558
aI105961739
aI106404138
aI110263710
aI105806955
aI106057429
aI105887951
aI106153682
aI106125110
aI105725257
aI107304319
aI105722170
aI105723013
aI106841222
aI107756397
aI107702929
aI107692878
aI106718282
aI106069787
aI105721798
aI106003617
aI106222692
aI105760689
aI105722134
aI106049245
aI105749923
aI105868611
aI106390328
aI106521564
aI107090651
aI108439923
aI107275370
aI108203709
aI106158261
aI105922241
aI107872377
aI108750316
aI107763151
aI108275778
aI105751900
aI105762615
aI105911195
aI109598008
aI106160602
aI105759231
aI105872355
aI105874492
aI105760941
aI105882024
aI105798767
aI105741620
aI106279399
aI105873040
aI105741728
aI105751735
aI105867546
aI105753112
aI105960664
aI105996954
aI106060694
aI106008773
aI106523391
aI106788263
aI106498954
aI106466053
aI106133209
aI105872786
aI106269845
aI105761244
aI106192192
aI105756463
aI106028928
aI107792011
aI106277236
aI105793712
aI105759453
aI106030503
aI106651041
aI107705222
aI105721852
aI106164152
aI106211226
aI105923367
aI105790435
aI106146866
aI105751843
aI105945027
aI105791785
aI106080049
aI105732653
aI106382806
aI105943160
aI105990023
aI106467305
aI106123578
aI106631901
aI108544422
aI105988607
aI106033118
aI107190464
aI105724297
aI105865640
aI108369892
aI107182529
aI106056559
aI105853808
aI105993296
aI105754045
aI105896198
aI105868700
aI105761022
aI106519281
aI107120228
aI107128177
aI106544622
aI105718759
aI106378263
aI105955459
aI105722437
aI107588485
aI106931187
aI105752110
aI110165436
aI105848073
aI106183772
aI105761226
aI105752236
aI106642398
aI105803545
aI108191647
aI106001123
aI106127925
aI107852049
aI105752803
aI105943342
aI105725311
aI108338025
aI107187196
aI105735347
aI107145489
aI105717745
aI105754183
aI107904171
aI109232141
aI107825083
aI106641238
aI105753589
aI106236113
aI107777813
aI106178074
aI105894845
aI105803440
aI106170094
aI106300126
aI108485824
aI106878670
aI105875544
aI105899205
aI105756391
aI107223286
aI105794887
aI105967535
aI106416528
aI107720397
aI108981956
aI106460410
aI106226347
aI106521648
aI106089227
aI105759651
aI107293294
aI107389416
aI106180675
aI106214631
aI106608242
aI108233461
aI106183606
aI105742052
aI106071449
aI107903491
aI105734867
aI106210445
aI106999531
aI107714315
aI106183790
aI105740819
aI106303356
aI108405570
aI108004639
aI106395393
aI105733070
aI105741569
aI107306550
aI108134122
aI105944432
aI105715559
aI105722101
aI105793844
aI108002791
aI105816407
aI105756505
aI105756769
aI105821587
aI106226356
aI106843798
aI105869889
aI106358782
aI105897922
aI105754996
aI107000964
aI107619411
aI105949823
aI107960375
aI105830363
aI105761082
aI107128226
aI107191063
aI105751003
aI105944650
aI106395672
aI105814121
aI108134100
aI105721684
aI106018125
aI107204414
aI106200178
aI107227174
aI106837601
aI105942331
aI108184861
aI107336284
aI106053513
aI107303725
aI105752464
aI105870239
aI107044803
aI107394194
aI106504529
aI106229355
aI105717934
aI105876986
aI105867062
aI105753877
aI105715520
aI105851982
aI105893568
aI106486229
aI105954148
aI106624918
aI108072027
aI105901809
aI106303907
aI106064872
aI106425103
aI106024248
aI106526974
aI106418617
aI107333984
aI106109550
aI105830332
aI105734696
aI106339850
aI105736420
aI106843130
aI106021428
aI106937622
aI105826507
aI105882818
aI106170551
aI107879566
aI106397261
aI105866459
aI106304505
aI105879133
aI105734753
aI106956464
aI106240353
aI105874706
aI106058663
aI105986053
aI105733043
aI106014323
aI108373472
aI105837207
aI106548864
aI106817435
aI106516663
aI106059289
aI105748975
aI105753097
aI106702573
aI105751606
aI106312382
aI106710269
aI106136658
aI107395153
aI105741767
aI105751300
aI105722314
aI107772586
aI106262929
aI105840276
aI105749560
aI105740282
aI106900957
aI106085047
aI105939731
aI105740273
aI108395644
aI105917688
aI106862482
aI105813895
aI107248662
aI109563338
aI105862947
aI106265810
aI105758955
aI106520615
aI106119554
aI105832762
aI105757837
aI107711074
aI105945214
aI108326288
aI105718687
aI107742823
aI106515723
aI105827549
aI108191600
aI105723682
aI105722467
aI105949876
aI105795507
aI105741188
aI106468146
aI106595522
aI105718777
aI106026258
aI106018921
aI105903250
aI106302432
aI106210783
aI108446305
aI107681602
aI105991737
aI105882608
aI105790859
aI106565107
aI105723490
aI106467695
aI105917692
aI105834006
aI106170100
aI105910842
aI105956629
aI105740957
aI108177975
aI106017786
aI106345235
aI108771428
aI107196033
aI108326353
aI107709974
aI105887271
aI106863126
aI106681283
aI107204424
aI106824332
aI106248473
aI105908632
aI105762801
aI106301266
aI105753466
aI106539712
aI107127972
aI106389631
aI105986139
aI106260060
aI106810828
aI105740369
aI105758323
aI106012950
aI105732551
aI105741824
aI106392021
aI106261131
aI105751717
aI105741470
aI107225287
aI107302898
aI107930835
aI105884241
aI106330015
aI106820855
aI106034339
aI105749614
aI107773605
aI107186835
aI106118250
aI105813007
aI106169015
aI106386383
aI106189033
aI106295786
aI105956310
aI105794555
aI105963940
aI107252408
aI106057134
aI105912859
aI105809855
aI105835842
aI105819911
aI105740126
aI107143575
aI107042079
aI107128150
aI105733022
aI105939256
aI106844672
aI105828723
aI106966833
aI105809589
aI105741923
aI106504524
aI105755932
aI105761067
aI105755851
aI108411962
aI105973915
aI105828994
aI105763935
aI105723511
aI105723790
aI105761541
aI106811964
aI105808856
aI106667121
aI105741854
aI105819772
aI107123636
aI105722146
aI105758650
aI105935056
aI106131700
aI109545907
aI105804852
aI107526849
aI105722035
aI106440060
aI106053031
aI105722857
aI106807598
aI106166465
aI106243671
aI106589607
aI108310699
aI105751810
aI108134132
aI107703663
aI105976306
aI106070872
aI105869244
aI105897523
aI105759303
aI106702538
aI107524446
aI105752368
aI107149299
aI106594014
aI105764313
aI107346186
aI106007175
aI106889461
aI105754075
aI106033489
aI105841220
aI105723082
aI106051372
aI106019996
aI105876674
aI106698827
aI106019497
aI105828698
aI105862966
aI105917163
aI106076046
aI106452902
aI105722929
aI106293430
aI105724045
aI107695397
aI105969134
aI105920111
aI106885251
aI106270196
aI106491577
aI106605323
aI105760947
aI105740903
aI105962946
aI105897928
aI105928940
aI106719094
aI106411003
aI105725044
aI105919793
aI105910352
aI105725314
aI105811929
aI105800028
aI106517576
aI106220895
aI106580228
aI106560427
aI107075723
aI105748705
aI108117365
aI105939106
aI107310316
aI105962922
aI106065258
aI105715541
aI106073473
aI107757601
aI105946967
aI106065335
aI107134336
aI105740486
aI105739913
aI106464123
aI105725866
aI106026660
aI106159734
aI105928716
aI105718102
aI105748918
aI107131436
aI106843417
aI107180047
aI106198776
aI107182908
aI106523749
aI106450596
aI105753556
aI105810613
aI108207784
aI107687018
aI105742115
aI106492441
aI106475798
aI105801917
aI106902377
aI108563796
aI105961862
aI108055248
aI105741056
aI106760941
aI108315001
aI107558452
aI107316201
aI105748690
aI105732335
aI106090166
aI105761964
aI105912624
aI106020666
aI106111398
aI105918917
aI106204197
aI107799291
aI107795838
aI105969814
aI105755710
aI106265765
aI105715676
aI107652289
aI105949122
aI105905225
aI105966571
aI105741293
aI106862337
aI106491868
aI107720165
aI106561362
aI106680124
aI105755149
aI106083606
aI105741605
aI105872472
aI105874666
aI106989898
aI106132103
aI105791341
aI105930583
aI107124539
aI105718534
aI105944839
aI105796265
aI109194342
aI105750697
aI105722278
aI105748074
aI106155792
aI105755749
aI105756916
aI105884551
aI105732791
aI105753022
aI105732296
aI105815358
aI105926130
aI105715244
aI105865757
aI105917187
aI105802373
aI106008367
aI108880366
aI105754519
aI106263810
aI105762705
aI105947958
aI106735560
aI106072421
aI105725896
aI108064675
aI105725707
aI107309150
aI106973595
aI106213667
aI105752326
aI105722062
aI105940844
aI107353477
aI106208614
aI107088968
aI105917784
aI106703111
aI106388861
aI105876886
aI105761154
aI107543321
aI105756553
aI106941410
aI105718696
aI105762369
aI105764982
aI108197972
aI105715364
aI105874595
aI107742569
aI105741179
aI105752557
aI106713128
aI105864760
aI105790788
aI105733145
aI109007909
aI105872065
aI107328542
aI105908656
aI105836752
aI106959498
aI106089909
aI105717697
aI105930949
aI106699787
aI107203502
aI106316075
aI106980571
aI105761199
aI105821892
aI106178031
aI105812662
aI106519202
aI105718027
aI107258732
aI107320532
aI107610770
aI107755077
aI105821473
aI105717955
aI105740420
aI108423152
aI109137422
aI106498941
aI106754166
aI107734956
aI106072597
aI107830804
aI105842844
aI105751399
aI105947830
aI108177039
aI106456276
aI105757276
aI105763347
aI107424504
aI105758641
aI105841230
aI105793829
aI105717895
aI105763887
aI105864295
aI106421246
aI106425771
aI105732497
aI105749416
aI106067924
aI106036023
aI105845936
aI105881857
aI106085173
aI106323388
aI105756976
aI105723532
aI105996507
aI106782196
aI105717775
aI105842717
aI106120956
aI107572983
aI106706853
aI107178024
aI109545942
aI106566784
aI106526794
aI108613072
aI105764985
aI105721753
aI106079600
aI107341167
aI105753907
aI106857032
aI107232743
aI105929391
aI106949198
aI106431341
aI107258498
aI105757696
aI106002018
aI107269714
aI105717802
aI107200458
aI105741101
aI106029322
aI108159481
aI105973656
aI106252688
aI105851505
aI106541467
aI105850209
aI108312776
aI106566795
aI107244438
aI105734573
aI105764187
aI105722974
aI107093436
aI106159336
aI106018100
aI105792804
aI105752710
aI105722431
aI107089013
aI106182839
aI106025450
aI106000795
aI106206166
aI105925317
aI106183610
aI105880787
aI105757180
aI106931001
aI105717604
aI105971385
aI105742013
aI105876458
aI105717718
aI107771966
aI105829730
aI105803592
aI106015364
aI107764132
aI106423068
aI107180692
aI105999884
aI105749317
aI105753058
aI105991222
aI105757459
aI105732455
aI106379705
aI105991702
aI105751321
aI105802233
aI105761700
aI107000983
aI105806903
aI105978231
aI106036908
aI106912616
aI106703368
aI105725809
aI105724099
aI108306831
aI105722410
aI105801735
aI105871241
aI106729852
aI105761676
aI105965186
aI106917960
aI107242424
aI105817707
aI105718849
aI106370723
aI105740639
aI105762336
aI107233867
aI106463637
aI107256764
aI106069021
aI106065310
aI106641313
aI105811923
aI106845038
aI106997995
aI105750775
aI105845604
aI105748948
aI106408841
aI106941426
aI107621582
aI105714761
aI105761274
aI106193276
aI106001132
aI106204435
aI106525325
aI105763734
aI106221622
aI105749911
aI106044947
aI106818355
aI105740648
aI106244530
aI106476834
aI106261485
aI107694111
aI106477409
aI106503145
aI107874703
aI105740189
aI105740378
aI105798943
aI106564662
aI105760620
aI108134158
aI106957123
aI106290282
aI105718525
aI105759354
aI106317011
aI106730189
aI106161440
aI106920558
aI105732962
aI105812207
aI105752332
aI105827117
aI105959853
aI105741035
aI106863285
aI106129927
aI105740240
aI105732425
aI107300517
aI107584677
aI105722164
aI106425714
aI106451171
aI106124864
aI105758542
aI106811748
aI106410946
aI108161888
aI106026270
aI106089252
aI105757027
aI105821465
aI105887478
aI105748873
aI105957607
aI105734687
aI105883408
aI105721732
aI106388840
aI106800962
aI105828449
aI105996811
aI106245532
aI106150490
aI105966226
aI105844894
aI106589469
aI105957892
aI105964367
aI105751930
aI105754267
aI106208624
aI105902297
aI106924706
aI105961415
aI105937390
aI105721957
aI107454217
aI105873216
aI106492417
aI105822978
aI106088200
aI105761601
aI107692888
aI105934930
aI106504515
aI106109316
aI106842559
aI105741662
aI105760578
aI106194414
aI106018903
aI106343976
aI106017060
aI106442996
aI106066032
aI105748621
aI106897861
aI105721690
aI105718642
aI106293401
aI107288315
aI105878810
aI105998712
aI106144655
aI105753724
aI107745095
aI105829046
aI107200694
aI105721759
aI105811979
aI105962596
aI105813856
aI106020524
aI105862936
aI107934642
aI105800700
aI105758413
aI106065295
aI106353563
aI106175808
aI106892263
aI106002121
aI105989612
aI105870283
aI105825088
aI106686145
aI105739895
aI106906299
aI107755047
aI106018746
aI105758467
aI108154051
aI106181751
aI105715538
aI105765015
aI105950007
aI105724156
aI106286285
aI107241861
aI106539066
aI106207751
aI105725785
aI105983685
aI105998969
aI106264982
aI105925159
aI107442251
aI105724603
aI107489082
aI105860641
aI105986648
aI106206191
aI106175948
aI107332141
aI105790274
aI105715181
aI106917394
aI105714944
aI105841167
aI106078473
aI105733001
aI106326806
aI106125070
aI105741974
aI106770458
aI106571850
aI106621446
aI105789504
aI105740660
aI106098583
aI105968658
aI105961779
aI107191762
aI105740258
aI105762333
aI105973381
aI105758904
aI107477803
aI105732248
aI105856611
aI105884987
aI107114096
aI105793821
aI108370948
aI105985117
aI106062201
aI107297934
aI105763821
aI106003201
aI107680438
aI108212308
aI106010404
aI107381972
aI105725626
aI108474326
aI107209348
aI106810822
aI107321855
aI105875901
aI108818050
aI105756730
aI106748268
aI106009284
aI106225717
aI105750046
aI105852778
aI107303298
aI105715166
aI106032558
aI107442256
aI106454898
aI105757243
aI107116007
aI106386563
aI106033945
aI106065327
aI105732476
aI105741077
aI107776270
aI106417754
aI105906422
aI105867043
aI105764253
aI105750433
aI106760957
aI106696991
aI106190926
aI106269907
aI107899687
aI107381697
aI106552509
aI105869298
aI105852476
aI105805764
aI106025457
aI106164016
aI106465068
aI106992705
aI106171292
aI105910806
aI105895237
aI105820050
aI105863005
aI106149032
aI105876735
aI105808515
aI105722515
aI108315715
aI106142945
aI108253551
aI105949952
aI105872426
aI105922227
aI106597895
aI108159474
aI105740339
aI105978905
aI108084203
aI106230928
aI105714797
aI107550095
aI105924990
aI106033139
aI106002738
aI107073402
aI105845569
aI107612092
aI107622069
aI105839486
aI105829852
aI105752113
aI106543133
aI105741995
aI106014674
aI105808931
aI105911911
aI105862896
aI105895232
aI105758341
aI107349091
aI105718657
aI105761694
aI108140099
aI106395366
aI108135968
aI105912509
aI106033484
aI107219263
aI105724213
aI105748702
aI105902104
aI105732482
aI107774499
aI106029033
aI107488311
aI105732749
aI106198609
aI106761085
aI106706306
aI106247599
aI107528888
aI105886695
aI106302437
aI106081931
aI107196099
aI105756265
aI105753577
aI105764907
aI105902057
aI105795748
aI106317672
aI105802285
aI108068367
aI107188916
aI106595177
aI105721903
aI105966659
aI106061926
aI105755248
aI105751897
aI106214068
aI105918292
aI106633246
aI105740246
aI105751846
aI106660862
aI105733073
aI105723400
aI106255312
aI106444616
aI105752047
aI106959436
aI105754246
aI105873545
aI106149020
aI108117522
aI105822349
aI105734828
aI106921324
aI105901816
aI106225753
aI107861392
aI106563428
aI106422616
aI105899755
aI105715037
aI107941261
aI105724909
aI106453221
aI106189152
aI106411030
aI106263795
aI105957709
aI107002356
aI105944079
aI107653331
aI105762747
aI106932661
aI105741848
aI105922841
aI105741752
aI107743321
aI105878883
aI105721816
aI105757507
aI106517760
aI108299139
aI106088215
aI106082264
aI105732698
aI106276440
aI105749728
aI105890923
aI108316993
aI105736465
aI105748259
aI106314301
aI105734945
aI105732536
aI105839336
aI105819539
aI105740714
aI105717490
aI105789073
aI108236884
aI107254712
aI105967440
aI105717748
aI106054717
aI106106801
aI107284179
aI105748466
aI108299472
aI105740933
aI105898433
aI105926067
aI105732674
aI106129081
aI105753133
aI106478631
aI106025621
aI106175812
aI105763437
aI107722735
aI106006022
aI106228408
aI105722614
aI106264563
aI105760194
aI107263655
aI105911856
aI107652269
aI106260788
aI106198915
aI105883313
aI106555525
aI105741170
aI106233558
aI106552870
aI106079936
aI105722053
aI105796722
aI106135888
aI107225103
aI105748283
aI107877239
aI106477874
aI108087253
aI105989995
aI107202869
aI106096516
aI106460423
aI107443768
aI105718186
aI106327329
aI106804258
aI106296202
aI105754840
aI105912593
aI105723796
aI105741089
aI105825060
aI105722749
aI107841035
aI106745080
aI105987340
aI106116467
aI107073705
aI107743283
aI106102689
aI106309585
aI105920520
aI105857742
aI105847147
aI108326446
aI109096490
aI105930590
aI107151167
aI105824316
aI106141922
aI106274989
aI105793718
aI105715664
aI106233733
aI106062363
aI107354935
aI105740564
aI106022837
aI106918003
aI105758901
aI105748448
aI108043545
aI107612113
aI105912629
aI105927480
aI107848733
aI105859082
aI106179143
aI105740456
aI106582978
aI106690893
aI108405945
aI106564995
aI106125052
aI107180674
aI105760497
aI105944966
aI105801739
aI105756610
aI105756634
aI106467435
aI107681563
aI105761283
aI106304393
aI107248769
aI107824157
aI107258958
aI106030531
aI106192169
aI106609860
aI105756883
aI107044765
aI106113574
aI106425522
aI105722887
aI106177948
aI105989621
aI105882851
aI105809726
aI105910220
aI105752275
aI107694908
aI105761001
aI105983183
aI106865694
aI106409735
aI106243470
aI108241811
aI107804629
aI105946206
aI107609243
aI105996964
aI105748436
aI105843132
aI106805088
aI105759735
aI105732983
aI105740717
aI106286382
aI105847932
aI105827655
aI106309183
aI105806002
aI107323756
aI106002969
aI105989981
aI105842943
aI105962956
aI107170413
aI105958675
aI105933001
aI106437989
aI105870227
aI105905655
aI108563825
aI106885726
aI105983194
aI106780358
aI105906870
aI105972220
aI106009689
aI108503964
aI106937674
aI106887181
aI105762240
aI105752830
aI105759084
aI105880834
aI105816768
aI106386750
aI105715586
aI106554901
aI105993540
aI105921786
aI106408202
aI106556427
aI106582684
aI107095306
aI108326374
aI107199641
aI106782976
aI106062331
aI106193660
aI105735377
aI105998277
aI105732392
aI106516274
aI106799068
aI105752767
aI105799356
aI105718213
aI105732608
aI106405603
aI106311078
aI106161173
aI105748340
aI107433527
aI105818097
aI106519194
aI105750748
aI105812149
aI107716886
aI105742082
aI107819034
aI105761079
aI107710783
aI105752098
aI107265899
aI106512607
aI106091205
aI105878101
aI105752917
aI106798292
aI105993286
aI106895066
aI105874288
aI106018806
aI107304025
aI105790613
aI105865668
aI107149472
aI106371786
aI105758464
aI106104441
aI106649113
aI108055222
aI107695402
aI106577860
aI105760740
aI105983482
aI106532870
aI106554939
aI107722455
aI106940855
aI106863117
aI106874388
aI108461984
aI105856684
aI106913131
aI106057097
aI106194067
aI106565008
aI105724636
aI105879729
aI105815129
aI106251992
aI107540547
aI105736112
aI106123012
aI108071120
aI105990011
aI106020410
aI105741590
aI107305439
aI106477909
aI105858768
aI106261309
aI105764133
aI106229391
aI106861600
aI106055934
aI106651376
aI106529763
aI106331458
aI106260042
aI105882437
aI106423153
aI106453341
aI106714924
aI106479794
aI106175828
aI105952070
aI106673268
aI106229940
aI105724114
aI105724249
aI105862092
aI105724000
aI106147886
aI106366244
aI105751009
aI105872434
aI107073227
aI105876775
aI105753892
aI108645141
aI106184656
aI106081853
aI107625555
aI108077172
aI105959733
aI107737102
aI106046536
aI105910904
aI106244748
aI106022847
aI107424675
aI106791296
aI105721639
aI106825333
aI105740768
aI105949019
aI106208196
aI106571816
aI106018758
aI106530265
aI105868693
aI107093454
aI106026087
aI107225705
aI106255424
aI105873035
aI108221665
aI106211776
aI105732377
aI105920901
aI107199601
aI105973013
aI105820346
aI107263413
aI106219155
aI106937607
aI105732896
aI106924736
aI107842304
aI106265278
aI105741317
aI105732371
aI105752221
aI106582078
aI105717655
aI105871977
aI105859185
aI106545002
aI106353378
aI106480430
aI107353391
aI105959144
aI107070293
aI106041617
aI105889548
aI106018063
aI106124173
aI106057993
aI106698666
aI106277296
aI105951178
aI105802365
aI105941644
aI106153035
aI105758428
aI106076035
aI106540905
aI106557849
aI106078832
aI106184703
aI106157147
aI108607696
aI105755239
aI105856699
aI108934293
aI105809794
aI106089667
aI105722743
aI105749080
aI106182864
aI107333285
aI105735731
aI106008530
aI108233874
aI105868022
aI105748352
aI105751477
aI105995907
aI105717838
aI105759177
aI105952867
aI105760566
aI105740504
aI105739919
aI106254330
aI106519191
aI105734873
aI105750655
aI106919086
aI105725653
aI105749821
aI106174113
aI106937596
aI108273586
aI105799082
aI106893264
aI105910852
aI106239714
aI108650320
aI106265842
aI106790674
aI106157138
aI105761055
aI105761160
aI106448097
aI105856705
aI105871745
aI105754912
aI106206829
aI105811552
aI105761037
aI105722311
aI106342988
aI105741557
aI105941302
aI105970381
aI109380079
aI105740525
aI108269212
aI105804864
aI105740687
aI106911231
aI107059260
aI105958684
aI106887446
aI107359641
aI106501703
aI106206283
aI107670124
aI105820566
aI106373476
aI105755899
aI105761472
aI106263982
aI106281444
aI106181790
aI106651151
aI108157307
aI105885598
aI106601197
aI105841191
aI107514177
aI105905537
aI106727865
aI105911219
aI105715679
aI106950462
aI105721729
aI105799710
aI106779735
aI107129849
aI108016402
aI107088160
aI105865415
aI105755614
aI106527496
aI105748798
aI106184167
aI106935484
aI106215426
aI106930084
aI106039587
aI107358564
aI106132134
aI106792673
aI106133888
aI105754915
aI105764727
aI105749734
aI107072848
aI107263400
aI105793286
aI105891278
aI105890522
aI105740927
aI108185848
aI106494791
aI106885753
aI105721834
aI105740033
aI107692743
aI105947741
aI106442350
aI105749539
aI105923032
aI106574070
aI105763680
aI105942220
aI105817270
aI106075208
aI105764871
aI105962286
aI105875268
aI105896688
aI107303734
aI105765030
aI105751360
aI105715034
aI105725581
aI106760423
aI107621848
aI106011340
aI107321383
aI105717787
aI106207697
aI105741050
aI105741710
aI105753613
aI105757084
aI105855228
aI105760323
aI106587152
aI105724354
aI105927474
aI105752821
aI106863244
aI106641255
aI106244989
aI108045688
aI106420639
aI105976163
aI105943611
aI109473220
aI105968335
aI107575111
aI106276838
aI105883877
aI105756691
aI106498950
aI107244142
aI106551342
aI106354639
aI105821102
aI105757846
aI105868436
aI106601602
aI105718831
aI105828314
aI105734948
aI106589421
aI105759225
aI106371408
aI106165758
aI107224680
aI107869553
aI105715457
aI107828842
aI105748373
aI105806397
aI108236566
aI105757729
aI105759351
aI108251672
aI107576469
aI107600806
aI107880132
aI107772491
aI105868466
aI105807774
aI105758497
aI106345228
aI105732773
aI105827642
aI106441351
aI105956679
aI106099461
aI105902753
aI105949994
aI105792795
aI105732365
aI106016534
aI108208213
aI106143110
aI107783543
aI106709530
aI106159375
aI106068998
aI106624983
aI107217945
aI105948052
aI107591758
aI105763644
aI106899362
aI105764238
aI105732347
aI105751195
aI107822931
aI105734606
aI106206272
aI105800865
aI106934930
aI107203285
aI107203525
aI106447960
aI107656940
aI105983445
aI107059786
aI106323514
aI105748367
aI107408075
aI108850695
aI106816516
aI105740426
aI106297712
aI106288990
aI106092660
aI107216195
aI107334457
aI106024057
aI105881881
aI106159446
aI105714887
aI105757447
aI106052383
aI107403063
aI105753328
aI105995807
aI105984419
aI105922525
aI105802006
aI109071262
aI107167540
aI106211332
aI105723805
aI107652114
aI107182718
aI105839323
aI106712349
aI105871986
aI106165037
aI106388482
aI106151200
aI106013514
aI106399158
aI105861212
aI108177442
aI105974957
aI105717421
aI106287247
aI106019986
aI105734789
aI106209610
aI105753619
aI106329281
aI106138089
aI106661331
aI105870764
aI105876150
aI106078492
aI105751408
aI106692731
aI106141568
aI105969708
aI107200580
aI105918091
aI106157130
aI106278152
aI107120137
aI106510747
aI105754222
aI106434115
aI106144004
aI106586504
aI106071016
aI107117801
aI106318688
aI107040067
aI106028524
aI105760677
aI107325975
aI105885699
aI106136892
aI105756937
aI105946250
aI106852454
aI105806624
aI105848859
aI106171282
aI105758056
aI106757629
aI108960969
aI105715226
aI105809780
aI106064576
aI108445716
aI105749779
aI105997572
aI105858078
aI108326274
aI105799128
aI105892254
aI105861028
aI106008038
aI105721675
aI106536542
aI105748876
aI105749968
aI105751354
aI106782963
aI105752344
aI106537719
aI105846776
aI105923805
aI105718471
aI105725491
aI107182339
aI105721963
aI105714998
aI105732479
aI106290553
aI106277152
aI106275110
aI105760188
aI105754696
aI106216192
aI106185268
aI106273521
aI105757921
aI107187208
aI107128234
aI105805759
aI105931501
aI107630722
aI105874495
aI105759741
aI106950680
aI105870872
aI105859242
aI106211790
aI106166533
aI105763071
aI107271209
aI108872984
aI107365496
aI105890409
aI105757843
aI105865685
aI106674255
aI105791008
aI105714827
aI106882629
aI105882449
aI106208618
aI105977043
aI106366254
aI105931493
aI105741587
aI107217490
aI106425598
aI107964737
aI105822851
aI106334528
aI105884815
aI105761364
aI105725269
aI106831151
aI105762495
aI105848865
aI106186124
aI105752353
aI106713097
aI105882601
aI105793190
aI105798601
aI106582185
aI107301442
aI105968426
aI106083602
aI106973554
aI106502664
aI106488551
aI108338771
aI106001217
aI105823013
aI105753634
aI105756961
aI105860667
aI105866361
aI105750658
aI105748753
aI105760920
aI107550104
aI106101699
aI106394014
aI106830968
aI105758895
aI107370652
aI106582997
aI105996485
aI106842554
aI105756973
aI108073893
aI105880571
aI106034964
aI108014681
aI106178043
aI106087858
aI106469408
aI105755935
aI106215702
aI106404789
aI105741800
aI110008393
aI107259074
aI105714902
aI106491699
aI106238729
aI106181076
aI105891272
aI105732500
aI107609266
aI106718260
aI106294643
aI105725020
aI105717967
aI105761259
aI107050535
aI105886978
aI106062087
aI105748969
aI106271737
aI106180909
aI107629056
aI106789874
aI105899760
aI108130031
aI106037239
aI106005938
aI105721699
aI105762156
aI105787772
aI105944087
aI107685946
aI106844218
aI106844790
aI107577227
aI105751327
aI106007127
aI108049031
aI105879414
aI107203531
aI106596475
aI105749038
aI106260335
aI106959509
aI106023889
aI106083513
aI105764709
aI105892929
aI106773170
aI105732227
aI106124672
aI106060687
aI105812547
aI107115974
aI105913655
aI105760929
aI107247639
aI105800483
aI105718810
aI105981811
aI107110611
aI107037497
aI108220723
aI106303364
aI106075767
aI106598640
aI105752872
aI109192585
aI108771411
aI107984030
aI106013332
aI107692898
aI105929673
aI109610883
aI106428433
aI105751159
aI107510221
aI106283207
aI105850314
aI109497320
aI105724285
aI105753868
aI105714935
aI106375211
aI106537649
aI106927842
aI107200621
aI105722521
aI105928033
aI106075758
aI106008042
aI105812684
aI107219302
aI106584648
aI105723424
aI105753856
aI105896632
aI105862062
aI106436531
aI105993524
aI105892239
aI105850906
aI105858850
aI106148899
aI106123505
aI105755707
aI107699143
aI105827424
aI105856203
aI105741191
aI105884624
aI105723709
aI105987248
aI106287942
aI106222695
aI105756088
aI108237549
aI105821487
aI106052378
aI106445946
aI105756454
aI105870690
aI107377907
aI105748978
aI105996018
aI105714872
aI105724645
aI106409196
aI108320487
aI107805195
aI106320729
aI105734810
aI106973561
aI105740303
aI106273967
aI106141408
aI109444131
aI105869832
aI105721972
aI105976064
aI105964119
aI105888230
aI107710738
aI106461785
aI105763323
aI106887525
aI106550317
aI105722560
aI106184078
aI105796219
aI106057528
aI106723819
aI105888959
aI105732236
aI105740057
aI105877268
aI106533426
aI105927954
aI105800326
aI106937189
aI106735138
aI107842284
aI105814633
aI105732230
aI107422535
aI107227237
aI106515784
aI105724048
aI105811846
aI105722038
aI106242004
aI106573949
aI105794286
aI105725164
aI105739988
aI106246546
aI105920094
aI105983104
aI105753292
aI107681459
aI108612798
aI105751696
aI106718575
aI105921773
aI106573347
aI105758670
aI105753103
aI106614626
aI106712419
aI106258998
aI105752137
aI107690757
aI107805908
aI106309932
aI106822816
aI106867373
aI106146808
aI105989922
aI105794223
aI106418522
aI108867060
aI105946225
aI107768669
aI106211784
aI106020481
aI106501876
aI105724960
aI105819755
aI106713121
aI105723457
aI105764838
aI107666139
aI106712455
aI105949475
aI106425756
aI105811915
aI105975956
aI106191339
aI106853208
aI106324871
aI105760563
aI105984324
aI106496005
aI106863249
aI105830456
aI106846654
aI107207921
aI108227799
aI107607130
aI106997218
aI105942647
aI105751294
aI105741038
aI106076218
aI106045420
aI105714725
aI106390004
aI108981812
aI106052604
aI106590696
aI105752125
aI107877189
aI105948309
aI106037518
aI105740822
aI105961395
aI105740684
aI107202843
aI106425690
aI105831858
aI105760206
aI105890858
aI106501501
aI106430726
aI106072110
aI106506331
aI108336680
aI109610758
aI105714809
aI106081011
aI106195726
aI107110153
aI105748615
aI105748370
aI108309502
aI105948163
aI109503521
aI106615908
aI105911730
aI105741194
aI105954031
aI106786952
aI106391802
aI105751780
aI105755320
aI105732350
aI105829088
aI107690583
aI105761724
aI105734759
aI106564989
aI105812947
aI107069186
aI105758587
aI107838924
aI106575827
aI105892337
aI105962603
aI107960696
aI107192430
aI109563358
aI105718489
aI105732359
aI106430666
aI107704748
aI105722890
aI108191636
aI106449034
aI105732263
aI106466062
aI105825882
aI107087750
aI105724528
aI106396564
aI105735395
aI106575787
aI105740444
aI107476507
aI105760554
aI106494566
aI105862991
aI106085457
aI107933074
aI107067215
aI105856693
aI106616053
aI106620653
aI105922152
aI105892195
aI106351823
aI106401072
aI105724597
aI105868448
aI105817156
aI106581859
aI105793864
aI106294161
aI105857542
aI105750667
aI105903672
aI106264283
aI105749575
aI105755266
aI105828439
aI106043129
aI106476805
aI105828453
aI106183986
aI107828873
aI106843469
aI105878108
aI105736339
aI106519159
aI105748487
aI106170579
aI107238707
aI105722329
aI107579752
aI106727622
aI107063747
aI105718783
aI105953448
aI108742776
aI107806209
aI105750685
aI105761166
aI105718702
aI105759786
aI105723058
aI106596840
aI108135568
aI105853841
aI106508167
aI107565318
aI105740681
aI106570325
aI107353405
aI105748093
aI106035672
aI105759822
aI107857060
aI105791450
aI105749902
aI107128264
aI108326344
aI106782169
aI105724969
aI105808941
aI107864659
aI105764343
aI105815637
aI108199490
aI106634104
aI107408295
aI105717706
aI105938062
aI106036207
aI106590455
aI106678968
aI105741263
aI105753151
aI105880812
aI107203510
aI105804872
aI105749116
aI106007654
aI106065161
aI106589495
aI106042488
aI106499000
aI105820873
aI105853360
aI105805796
aI105740987
aI105916617
aI105755638
aI106537631
aI106584847
aI105733085
aI106447704
aI105835388
aI105753604
aI105714755
aI106878183
aI105763092
aI106719076
aI105850085
aI106409528
aI105910438
aI105886700
aI105855624
aI105902363
aI105732998
aI105835308
aI105793808
aI106154378
aI105721807
aI106547079
aI106664085
aI106409184
aI108246073
aI106793403
aI107856016
aI106301795
aI105756289
aI105755632
aI107489298
aI106020552
aI105933938
aI107724722
aI105958845
aI107395164
aI105913324
aI106020292
aI107652040
aI106267777
aI105758629
aI107683340
aI105735392
aI106236039
aI106744677
aI105866451
aI106157106
aI105759024
aI106211755
aI106055057
aI105749548
aI106599049
aI106402021
aI105898533
aI106791974
aI105844805
aI105749872
aI105889783
aI105741224
aI105714779
aI105906014
aI105867039
aI105816299
aI108120109
aI107657049
aI105732650
aI105740999
aI106000083
aI106565918
aI105918086
aI106076132
aI107207724
aI105741665
aI105740132
aI106813219
aI105752980
aI105722281
aI105734678
aI107539675
aI105723544
aI105862994
aI107641432
aI105977559
aI108193179
aI105823912
aI105762174
aI105910924
aI106825343
aI105903866
aI105866371
aI108523146
aI105763533
aI105751978
aI106587654
aI107652021
aI106433348
aI105724870
aI105998460
aI105874654
aI107304882
aI105754252
aI106232309
aI106150359
aI107549862
aI105851716
aI105734834
aI105947872
aI105752725
aI105715655
aI106707062
aI108140143
aI106135291
aI105937582
aI106094784
aI108373680
aI106793339
aI106775032
aI105752989
aI105753448
aI105717523
aI105725824
aI106518756
aI106032875
aI105756427
aI105990038
aI107304086
aI106241707
aI105754927
aI105809843
aI105985939
aI106892481
aI105735734
aI106002745
aI106006216
aI105715232
aI105917957
aI105793956
aI106291032
aI105725077
aI107783732
aI108151526
aI105972157
aI105964199
aI106533061
aI105723895
aI106840654
aI105799049
aI107219825
aI105845963
aI106502546
aI107801944
aI107378041
aI105724672
aI108415942
aI106896953
aI106150810
aI107059683
aI106582944
aI106584811
aI106264209
aI107237875
aI105761070
aI107813952
aI106435859
aI105983934
aI107631750
aI106590961
aI105725719
aI106486577
aI106250371
aI106452871
aI106951086
aI108048945
aI106063792
aI105915060
aI106565238
aI106058808
aI107566123
aI106754188
aI107761525
aI108326358
aI105758539
aI105718174
aI108523672
aI105757207
aI105741608
aI105799344
aI106257625
aI106900279
aI105752695
aI107505728
aI105749305
aI107200257
aI106009586
aI107911649
aI106054635
aI105923818
aI107324024
aI106297256
aI106790600
aI106437910
aI105760557
aI105715250
aI106761491
aI107247628
aI105807060
aI106026195
aI108326409
aI106177374
aI106706845
aI105740105
aI105759996
aI106011398
aI106791597
aI105761319
aI109676254
aI105762033
aI105820362
aI105962298
aI105864794
aI106840751
aI106238205
aI105725122
aI107188082
aI106431376
aI105765114
aI106070889
aI105748388
aI105753028
aI107248288
aI105754906
aI106073035
aI106026264
aI105742067
aI105866429
aI105936066
aI108128281
aI107730865
aI106278279
aI105759405
aI106605255
aI105880157
aI106481519
aI106148885
aI105961561
aI105954072
aI106684306
aI106144850
aI106545831
aI105905229
aI106018140
aI106821067
aI105752923
aI105732590
aI107876653
aI106476328
aI105718450
aI105721696
aI105918420
aI106270916
aI106177069
aI105947722
aI105717886
aI108095626
aI105715499
aI106502569
aI107015275
aI106628813
aI106885744
aI105959422
aI106911261
aI105761310
aI105792199
aI108650332
aI105740678
aI106180686
aI105827623
aI106730200
aI107308022
aI105870699
aI105756616
aI108556929
aI105853323
aI106025380
aI108268130
aI107203293
aI109491316
aI106142549
aI105756538
aI106445770
aI107116000
aI105792518
aI105975656
aI107924777
aI105846630
aI106133508
aI106502023
aI105750031
aI106479781
aI105910331
aI106200868
aI106254350
aI105925698
aI105740435
aI105760602
aI105721657
aI106760955
aI106585959
aI105734831
aI105789533
aI105723499
aI105944477
aI106129055
aI106277226
aI105724102
aI107246850
aI105936819
aI106018762
aI105748014
aI106070861
aI107414775
aI105757942
aI105962497
aI105754918
aI105742184
aI105752152
aI105994585
aI109326651
aI105804932
aI105718660
aI106393414
aI106192758
aI107114080
aI106216395
aI105721702
aI105734813
aI106787971
aI105793812
aI107185323
aI105760281
aI106194084
aI107827287
aI105725368
aI106552109
aI105748105
aI106229170
aI106694058
aI105928635
aI106691812
aI107819526
aI105740462
aI107622314
aI105764919
aI107334440
aI106324559
aI105836358
aI108111295
aI105915723
aI106007493
aI106527466
aI105992940
aI105847449
aI107111843
aI105826083
aI105973663
aI105764235
aI105846621
aI107540380
aI105740666
aI105923959
aI106234928
aI106782060
aI108750321
aI106721202
aI105874757
aI107132457
aI106820806
aI106239765
aI106521666
aI105751153
aI106029083
aI105835508
aI105806033
aI105724003
aI105753574
aI107731262
aI106874641
aI105741572
aI105725404
aI106244286
aI106760933
aI105990064
aI106145438
aI106510904
aI105799057
aI105763761
aI106272207
aI105722017
aI106059648
aI105721948
aI107170217
aI106089218
aI105753025
aI106075929
aI105717892
aI106882525
aI105942325
aI105752719
aI105851497
aI107200644
aI106290300
aI107156216
aI106359532
aI105751864
aI105717334
aI106183644
aI106113458
aI106178095
aI105741581
aI105989604
aI105741104
aI105717493
aI107008102
aI108202801
aI105813493
aI106157896
aI106140118
aI105983024
aI105740777
aI108327782
aI107200489
aI106065301
aI105819714
aI105740333
aI106106530
aI108401793
aI105923599
aI105753463
aI106758006
aI105723157
aI105988033
aI106302398
aI105725833
aI106006900
aI107631149
aI106425727
aI106475847
aI105755290
aI106614620
aI105753250
aI106143715
aI107775202
aI106097044
aI106491536
aI106082248
aI108045298
aI106333601
aI105847846
aI108290650
aI108433846
aI105955591
aI105718453
aI105797982
aI105764994
aI107116792
aI105800402
aI106272030
aI107131407
aI105750406
aI105915825
aI106413723
aI105925851
aI105794216
aI106882261
aI105725716
aI105929544
aI107274087
aI105735320
aI107608360
aI106324389
aI105809867
aI106515678
aI106020245
aI106781388
aI108291249
aI106580601
aI106303979
aI106491683
aI106243634
aI106018628
aI106389639
aI105723784
aI106403207
aI105752524
aI105800334
aI105806885
aI107669659
aI105956721
aI106370696
aI107267253
aI107768424
aI106289394
aI105714845
aI106041075
aI105813870
aI105811886
aI106121193
aI106594675
aI106025614
aI105968581
aI107842238
aI106060576
aI107187454
aI105821106
aI105740285
aI105762813
aI107226018
aI106857410
aI106006715
aI109386418
aI106580249
aI106009385
aI107263803
aI106133566
aI106177987
aI106456396
aI106019454
aI105752140
aI106286798
aI106776315
aI105842443
aI105721996
aI105762291
aI105789541
aI105920222
aI105891669
aI105718750
aI105748780
aI105740951
aI106147475
aI105749533
aI105812559
aI109335383
aI105748687
aI105764166
aI106372538
aI105799504
aI105753313
aI106083618
aI107111318
aI105740831
aI105717688
aI105888741
aI106029313
aI106617435
aI106804759
aI106423901
aI105762816
aI106320842
aI106277098
aI105970265
aI105735059
aI107794440
aI106107557
aI108019657
aI106101363
aI106015558
aI105831991
aI106264292
aI105722845
aI106937863
aI106383834
aI107123583
aI107692201
aI105868220
aI105714734
aI108022159
aI106015735
aI105760131
aI106569152
aI105760332
aI107187218
aI105761058
aI107134555
aI105834017
aI105723520
aI105753940
aI106726957
aI105757012
aI106121507
aI107181054
aI105972111
aI105850229
aI107752372
aI106878388
aI105758272
aI106899012
aI106189887
aI107403203
aI106548467
aI109198962
aI106020496
aI105831434
aI106876771
aI107110318
aI106502634
aI105754471
aI106444987
aI105991246
aI107510230
aI105962059
aI106288555
aI108564748
aI106875717
aI106188258
aI107767790
aI106243849
aI108134082
aI106576675
aI106021672
aI105853386
aI105723010
aI108188028
aI105762060
aI105734807
aI105761007
aI106183083
aI106581984
aI108375902
aI105902757
aI105993699
aI105879739
aI105754969
aI105974318
aI105748789
aI105857828
aI105748331
aI106516064
aI105751933
aI105740861
aI105749161
aI106052784
aI106750130
aI107850975
aI107376488
aI105740375
aI106015716
aI105723391
aI105718087
aI106427232
aI106596362
aI105715667
aI106554460
aI105740612
aI105725629
aI105757039
aI105870616
aI105945178
aI106863909
aI105927485
aI106409785
aI105880567
aI106956445
aI107755261
aI106538027
aI105860759
aI106410313
aI106058052
aI106116481
aI105715088
aI106059309
aI106530742
aI105754987
aI106230115
aI106716974
aI106001883
aI105763290
aI105969742
aI108294579
aI105826534
aI106121979
aI105752290
aI106253341
aI105875424
aI105841801
aI109192607
aI105715439
aI109107893
aI107619348
aI105834686
aI108361351
aI105740540
aI105860735
aI105827646
aI107074943
aI105722542
aI106002063
aI107307192
aI105795287
aI106032123
aI106255347
aI105724504
aI105960629
aI105945424
aI106112441
aI106080079
aI105749929
aI105754255
aI105962584
aI105966728
aI106436217
aI106497970
aI106193137
aI108425254
aI105827570
aI106813149
aI106677557
aI107608517
aI105868688
aI106327736
aI105823017
aI106193647
aI108426190
aI105762354
aI105741149
aI106170436
aI105763266
aI105722152
aI105742139
aI105742169
aI106680125
aI106188277
aI105806548
aI105760047
aI108452905
aI106147442
aI105880562
aI105718684
aI105717646
aI106518800
aI106502041
aI105758676
aI106013901
aI107756999
aI105759174
aI105722254
aI105826090
aI106178003
aI106178089
aI105842582
aI106024243
aI105764298
aI105877221
aI105949674
aI105749959
aI105979485
aI105756823
aI106185961
aI106395422
aI106570137
aI106405937
aI106401344
aI106954657
aI106128546
aI105718780
aI105980313
aI105931915
aI106628784
aI105804868
aI106183105
aI107739754
aI106371737
aI106427950
aI106749620
aI105757210
aI105757231
aI105751015
aI106290486
aI105754714
aI106985373
aI108134072
aI107666979
aI105752824
aI106368821
aI107769799
aI107892930
aI105860612
aI105735350
aI106011991
aI105736052
aI106468916
aI106924745
aI105945151
aI106617631
aI105981055
aI107164703
aI106853424
aI106029128
aI105741524
aI105725773
aI105740840
aI105734684
aI105870849
aI108134111
aI106814613
aI105714833
aI106532728
aI105756412
aI105960650
aI106436379
aI105799053
aI106427242
aI107669182
aI105732413
aI105829783
aI105827766
aI107309540
aI105946942
aI105791086
aI106627400
aI105749899
aI108999668
aI105865686
aI108330417
aI106473947
aI106013451
aI106536080
aI106318889
aI105849794
aI106072236
aI105752614
aI105723742
aI107680426
aI107248178
aI106052597
a.