(dp0
S'5.11b/c'
p1
F23.5
sS'5.14a'
p2
I34
sS'5.10c/d'
p3
F21.5
sS'5.10b/c'
p4
F20.5
sS'5.14d'
p5
I37
sS'5.13b/c'
p6
F31.5
sS'5.13c'
p7
I32
sS'5.14c'
p8
I36
sS'5.13+'
p9
F32.5
sS'5.13c/d'
p10
F32.5
sS'5.13-'
p11
F30.5
sS'5.12a'
p12
I26
sS'5.12c'
p13
I28
sS'5.12b'
p14
I27
sS'5.12d'
p15
I29
sS'5.0'
p16
F3.5
sS'5.1'
p17
F5.5
sS'5.2'
p18
F7.5
sS'5.3'
p19
F8.5
sS'5.4'
p20
F10.5
sS'5.5'
p21
F11.5
sS'5.6'
p22
I13
sS'5.7'
p23
F14.5
sS'5.8'
p24
I16
sS'5.9'
p25
F17.5
sS'5th'
p26
F3.5
sS'5.10+'
p27
I21
sS'5.15a'
p28
I38
sS'5.11c/d'
p29
F24.5
sS'5.14-'
p30
F34.5
sS'5.10a/b'
p31
F19.5
sS'5.13a/b'
p32
F30.5
sS'5.14b'
p33
I35
sS'5.7+'
p34
I15
sS'5.11a'
p35
F22.5
sS'5.12+'
p36
F28.5
sS'5.11b'
p37
I23
sS'5.12a/b'
p38
F26.5
sS'5.12'
p39
F27.5
sS'5.9+'
p40
I18
sS'5.10'
p41
I20
sS'4th'
p42
I2
sS'5.12-'
p43
F26.5
sS'5.9-'
p44
I17
sS'5.13b'
p45
I31
sS'5.11d'
p46
I25
sS'5.13a'
p47
I30
sS'5.11c'
p48
I24
sS'5.13d'
p49
I33
sS'5.10d'
p50
I22
sS'5.10c'
p51
I21
sS'5.10b'
p52
I20
sS'5.10a'
p53
I19
sS'5.13'
p54
F31.5
sS'5.8-'
p55
F15.5
sS'5.11+'
p56
F24.5
sS'5.11a/b'
p57
F22.75
sS'5.11-'
p58
I23
sS'5.8+'
p59
F16.5
sS'5.11'
p60
F23.5
sS'5.12c/d'
p61
F28.5
sS'5.14a/b'
p62
F34.5
sS'5.12b/c'
p63
F27.5
sS'5.10-'
p64
F19.5
s.